ARM GAS  C:\Users\sangt\AppData\Local\Temp\cc6s9Yz8.s 			page 1


   1              		.cpu cortex-m3
   2              		.arch armv7-m
   3              		.fpu softvfp
   4              		.eabi_attribute 20, 1
   5              		.eabi_attribute 21, 1
   6              		.eabi_attribute 23, 3
   7              		.eabi_attribute 24, 1
   8              		.eabi_attribute 25, 1
   9              		.eabi_attribute 26, 1
  10              		.eabi_attribute 30, 1
  11              		.eabi_attribute 34, 1
  12              		.eabi_attribute 18, 4
  13              		.file	"MY_NRF24.c"
  14              		.text
  15              	.Ltext0:
  16              		.cfi_sections	.debug_frame
  17              		.section	.text.NRF24_DelayMicroSeconds,"ax",%progbits
  18              		.align	1
  19              		.global	NRF24_DelayMicroSeconds
  20              		.syntax unified
  21              		.thumb
  22              		.thumb_func
  24              	NRF24_DelayMicroSeconds:
  25              	.LVL0:
  26              	.LFB75:
  27              		.file 1 "Drivers/Radio/Src/MY_NRF24.c"
   1:Drivers/Radio/Src/MY_NRF24.c **** /*
   2:Drivers/Radio/Src/MY_NRF24.c **** Library:					NRF24L01/NRF24L01+
   3:Drivers/Radio/Src/MY_NRF24.c **** Written by:				Mohamed Yaqoob (MYaqoobEmbedded YouTube
   4:Drivers/Radio/Src/MY_NRF24.c **** Channel) Date Written:			10/11/2018 Last modified:
   5:Drivers/Radio/Src/MY_NRF24.c **** -/-
   6:Drivers/Radio/Src/MY_NRF24.c **** Description:			This is an STM32 device driver library for the
   7:Drivers/Radio/Src/MY_NRF24.c **** NRF24L01 Nordic Radio transceiver, using STM HAL libraries
   8:Drivers/Radio/Src/MY_NRF24.c **** 
   9:Drivers/Radio/Src/MY_NRF24.c **** References:				This library was written based on the
  10:Drivers/Radio/Src/MY_NRF24.c **** Arduino NRF24 Open-Source library by J. Coliz and the NRF24 datasheet
  11:Drivers/Radio/Src/MY_NRF24.c ****                                                                                 - https://github.co
  12:Drivers/Radio/Src/MY_NRF24.c ****                                                                                 - https://www.spark
  13:Drivers/Radio/Src/MY_NRF24.c **** 
  14:Drivers/Radio/Src/MY_NRF24.c **** * Copyright (C) 2018 - M. Yaqoob
  15:Drivers/Radio/Src/MY_NRF24.c ****    This is a free software under the GNU license, you can redistribute it and/or
  16:Drivers/Radio/Src/MY_NRF24.c **** modify it under the terms of the GNU General Public Licenseversion 3 as
  17:Drivers/Radio/Src/MY_NRF24.c **** published by the Free Software Foundation.
  18:Drivers/Radio/Src/MY_NRF24.c **** 
  19:Drivers/Radio/Src/MY_NRF24.c ****    This software library is shared with puplic for educational purposes, without
  20:Drivers/Radio/Src/MY_NRF24.c **** WARRANTY and Author is not liable for any damages caused directly or indirectly
  21:Drivers/Radio/Src/MY_NRF24.c **** by this software, read more about this on the GNU General Public License.
  22:Drivers/Radio/Src/MY_NRF24.c **** */
  23:Drivers/Radio/Src/MY_NRF24.c **** 
  24:Drivers/Radio/Src/MY_NRF24.c **** // List of header files
  25:Drivers/Radio/Src/MY_NRF24.c **** #include "MY_NRF24.h"
  26:Drivers/Radio/Src/MY_NRF24.c **** 
  27:Drivers/Radio/Src/MY_NRF24.c **** #include <stdio.h>
  28:Drivers/Radio/Src/MY_NRF24.c **** 
  29:Drivers/Radio/Src/MY_NRF24.c **** #include "main.h"
  30:Drivers/Radio/Src/MY_NRF24.c **** 
  31:Drivers/Radio/Src/MY_NRF24.c **** //*** Variables declaration ***//
ARM GAS  C:\Users\sangt\AppData\Local\Temp\cc6s9Yz8.s 			page 2


  32:Drivers/Radio/Src/MY_NRF24.c **** #define MAX(x, y) (((x) > (y)) ? (x) : (y))
  33:Drivers/Radio/Src/MY_NRF24.c **** #define MIN(x, y) (((x) < (y)) ? (x) : (y))
  34:Drivers/Radio/Src/MY_NRF24.c **** #define _BOOL(x) (((x) > 0) ? 1 : 0)
  35:Drivers/Radio/Src/MY_NRF24.c **** 
  36:Drivers/Radio/Src/MY_NRF24.c **** //*** Library variables ***//
  37:Drivers/Radio/Src/MY_NRF24.c **** static uint64_t pipe0_reading_address;
  38:Drivers/Radio/Src/MY_NRF24.c **** static bool
  39:Drivers/Radio/Src/MY_NRF24.c ****     ack_payload_available; /**< Whether there is an ack payload waiting */
  40:Drivers/Radio/Src/MY_NRF24.c **** static uint8_t ack_payload_length; /**< Dynamic size of pending ack payload. */
  41:Drivers/Radio/Src/MY_NRF24.c **** static uint8_t payload_size;       /**< Fixed size of payloads */
  42:Drivers/Radio/Src/MY_NRF24.c **** static bool
  43:Drivers/Radio/Src/MY_NRF24.c ****     dynamic_payloads_enabled; /**< Whether dynamic payloads are enabled. */
  44:Drivers/Radio/Src/MY_NRF24.c **** static bool p_variant;        /* False for RF24L01 and true for RF24L01P */
  45:Drivers/Radio/Src/MY_NRF24.c **** static bool wide_band;        /* 2Mbs data rate in use? */
  46:Drivers/Radio/Src/MY_NRF24.c **** 
  47:Drivers/Radio/Src/MY_NRF24.c **** //*** NRF24L01 pins and handles ***//
  48:Drivers/Radio/Src/MY_NRF24.c **** // CE and CSN pins
  49:Drivers/Radio/Src/MY_NRF24.c **** static GPIO_TypeDef *nrf24_PORT;
  50:Drivers/Radio/Src/MY_NRF24.c **** static uint16_t nrf24_CSN_PIN;
  51:Drivers/Radio/Src/MY_NRF24.c **** static uint16_t nrf24_CE_PIN;
  52:Drivers/Radio/Src/MY_NRF24.c **** // SPI handle
  53:Drivers/Radio/Src/MY_NRF24.c **** static SPI_HandleTypeDef nrf24_hspi;
  54:Drivers/Radio/Src/MY_NRF24.c **** // Debugging UART handle
  55:Drivers/Radio/Src/MY_NRF24.c **** static UART_HandleTypeDef nrf24_huart;
  56:Drivers/Radio/Src/MY_NRF24.c **** 
  57:Drivers/Radio/Src/MY_NRF24.c **** //**** Functions prototypes ****//
  58:Drivers/Radio/Src/MY_NRF24.c **** // Microsecond delay function
  59:Drivers/Radio/Src/MY_NRF24.c **** void NRF24_DelayMicroSeconds(uint32_t uSec) {
  28              		.loc 1 59 45 view -0
  29              		.cfi_startproc
  30              		@ args = 0, pretend = 0, frame = 0
  31              		@ frame_needed = 0, uses_anonymous_args = 0
  32              		@ link register save eliminated.
  60:Drivers/Radio/Src/MY_NRF24.c ****     uint32_t uSecVar = uSec;
  33              		.loc 1 60 5 view .LVU1
  61:Drivers/Radio/Src/MY_NRF24.c ****     uSecVar = uSecVar * ((SystemCoreClock / 1000000) / 3);
  34              		.loc 1 61 5 view .LVU2
  35              		.loc 1 61 54 is_stmt 0 view .LVU3
  36 0000 064B     		ldr	r3, .L3
  37 0002 1B68     		ldr	r3, [r3]
  38 0004 064A     		ldr	r2, .L3+4
  39 0006 A2FB0323 		umull	r2, r3, r2, r3
  40 000a 9B0C     		lsrs	r3, r3, #18
  41              		.loc 1 61 13 view .LVU4
  42 000c 03FB00F0 		mul	r0, r3, r0
  43              	.LVL1:
  62:Drivers/Radio/Src/MY_NRF24.c ****     while (uSecVar--)
  44              		.loc 1 62 5 is_stmt 1 view .LVU5
  45              	.L2:
  63:Drivers/Radio/Src/MY_NRF24.c ****         ;
  46              		.loc 1 63 9 discriminator 1 view .LVU6
  62:Drivers/Radio/Src/MY_NRF24.c ****     while (uSecVar--)
  47              		.loc 1 62 11 discriminator 1 view .LVU7
  48 0010 0346     		mov	r3, r0
  62:Drivers/Radio/Src/MY_NRF24.c ****     while (uSecVar--)
  49              		.loc 1 62 19 is_stmt 0 discriminator 1 view .LVU8
  50 0012 0138     		subs	r0, r0, #1
ARM GAS  C:\Users\sangt\AppData\Local\Temp\cc6s9Yz8.s 			page 3


  51              	.LVL2:
  62:Drivers/Radio/Src/MY_NRF24.c ****     while (uSecVar--)
  52              		.loc 1 62 11 discriminator 1 view .LVU9
  53 0014 002B     		cmp	r3, #0
  54 0016 FBD1     		bne	.L2
  64:Drivers/Radio/Src/MY_NRF24.c **** }
  55              		.loc 1 64 1 view .LVU10
  56 0018 7047     		bx	lr
  57              	.L4:
  58 001a 00BF     		.align	2
  59              	.L3:
  60 001c 00000000 		.word	SystemCoreClock
  61 0020 819F5E16 		.word	375299969
  62              		.cfi_endproc
  63              	.LFE75:
  65              		.section	.text.NRF24_csn,"ax",%progbits
  66              		.align	1
  67              		.global	NRF24_csn
  68              		.syntax unified
  69              		.thumb
  70              		.thumb_func
  72              	NRF24_csn:
  73              	.LVL3:
  74              	.LFB76:
  65:Drivers/Radio/Src/MY_NRF24.c **** 
  66:Drivers/Radio/Src/MY_NRF24.c **** // 1. Chip Select function
  67:Drivers/Radio/Src/MY_NRF24.c **** void NRF24_csn(int state) {
  75              		.loc 1 67 27 is_stmt 1 view -0
  76              		.cfi_startproc
  77              		@ args = 0, pretend = 0, frame = 0
  78              		@ frame_needed = 0, uses_anonymous_args = 0
  79              		.loc 1 67 27 is_stmt 0 view .LVU12
  80 0000 08B5     		push	{r3, lr}
  81              	.LCFI0:
  82              		.cfi_def_cfa_offset 8
  83              		.cfi_offset 3, -8
  84              		.cfi_offset 14, -4
  68:Drivers/Radio/Src/MY_NRF24.c ****     if (state)
  85              		.loc 1 68 5 is_stmt 1 view .LVU13
  86              		.loc 1 68 8 is_stmt 0 view .LVU14
  87 0002 38B1     		cbz	r0, .L6
  69:Drivers/Radio/Src/MY_NRF24.c ****         HAL_GPIO_WritePin(nrf24_PORT, nrf24_CSN_PIN, GPIO_PIN_SET);
  88              		.loc 1 69 9 is_stmt 1 view .LVU15
  89 0004 0122     		movs	r2, #1
  90 0006 074B     		ldr	r3, .L9
  91 0008 1988     		ldrh	r1, [r3]
  92 000a 074B     		ldr	r3, .L9+4
  93 000c 1868     		ldr	r0, [r3]
  94              	.LVL4:
  95              		.loc 1 69 9 is_stmt 0 view .LVU16
  96 000e FFF7FEFF 		bl	HAL_GPIO_WritePin
  97              	.LVL5:
  98              	.L5:
  70:Drivers/Radio/Src/MY_NRF24.c ****     else
  71:Drivers/Radio/Src/MY_NRF24.c ****         HAL_GPIO_WritePin(nrf24_PORT, nrf24_CSN_PIN, GPIO_PIN_RESET);
  72:Drivers/Radio/Src/MY_NRF24.c **** }
  99              		.loc 1 72 1 view .LVU17
ARM GAS  C:\Users\sangt\AppData\Local\Temp\cc6s9Yz8.s 			page 4


 100 0012 08BD     		pop	{r3, pc}
 101              	.LVL6:
 102              	.L6:
  71:Drivers/Radio/Src/MY_NRF24.c **** }
 103              		.loc 1 71 9 is_stmt 1 view .LVU18
 104 0014 0022     		movs	r2, #0
 105 0016 034B     		ldr	r3, .L9
 106 0018 1988     		ldrh	r1, [r3]
 107 001a 034B     		ldr	r3, .L9+4
 108 001c 1868     		ldr	r0, [r3]
 109              	.LVL7:
  71:Drivers/Radio/Src/MY_NRF24.c **** }
 110              		.loc 1 71 9 is_stmt 0 view .LVU19
 111 001e FFF7FEFF 		bl	HAL_GPIO_WritePin
 112              	.LVL8:
 113              		.loc 1 72 1 view .LVU20
 114 0022 F6E7     		b	.L5
 115              	.L10:
 116              		.align	2
 117              	.L9:
 118 0024 00000000 		.word	.LANCHOR0
 119 0028 00000000 		.word	.LANCHOR1
 120              		.cfi_endproc
 121              	.LFE76:
 123              		.section	.text.NRF24_ce,"ax",%progbits
 124              		.align	1
 125              		.global	NRF24_ce
 126              		.syntax unified
 127              		.thumb
 128              		.thumb_func
 130              	NRF24_ce:
 131              	.LVL9:
 132              	.LFB77:
  73:Drivers/Radio/Src/MY_NRF24.c **** // 2. Chip Enable
  74:Drivers/Radio/Src/MY_NRF24.c **** void NRF24_ce(int state) {
 133              		.loc 1 74 26 is_stmt 1 view -0
 134              		.cfi_startproc
 135              		@ args = 0, pretend = 0, frame = 0
 136              		@ frame_needed = 0, uses_anonymous_args = 0
 137              		.loc 1 74 26 is_stmt 0 view .LVU22
 138 0000 08B5     		push	{r3, lr}
 139              	.LCFI1:
 140              		.cfi_def_cfa_offset 8
 141              		.cfi_offset 3, -8
 142              		.cfi_offset 14, -4
  75:Drivers/Radio/Src/MY_NRF24.c ****     if (state)
 143              		.loc 1 75 5 is_stmt 1 view .LVU23
 144              		.loc 1 75 8 is_stmt 0 view .LVU24
 145 0002 38B1     		cbz	r0, .L12
  76:Drivers/Radio/Src/MY_NRF24.c ****         HAL_GPIO_WritePin(nrf24_PORT, nrf24_CE_PIN, GPIO_PIN_SET);
 146              		.loc 1 76 9 is_stmt 1 view .LVU25
 147 0004 0122     		movs	r2, #1
 148 0006 074B     		ldr	r3, .L15
 149 0008 1988     		ldrh	r1, [r3]
 150 000a 074B     		ldr	r3, .L15+4
 151 000c 1868     		ldr	r0, [r3]
 152              	.LVL10:
ARM GAS  C:\Users\sangt\AppData\Local\Temp\cc6s9Yz8.s 			page 5


 153              		.loc 1 76 9 is_stmt 0 view .LVU26
 154 000e FFF7FEFF 		bl	HAL_GPIO_WritePin
 155              	.LVL11:
 156              	.L11:
  77:Drivers/Radio/Src/MY_NRF24.c ****     else
  78:Drivers/Radio/Src/MY_NRF24.c ****         HAL_GPIO_WritePin(nrf24_PORT, nrf24_CE_PIN, GPIO_PIN_RESET);
  79:Drivers/Radio/Src/MY_NRF24.c **** }
 157              		.loc 1 79 1 view .LVU27
 158 0012 08BD     		pop	{r3, pc}
 159              	.LVL12:
 160              	.L12:
  78:Drivers/Radio/Src/MY_NRF24.c **** }
 161              		.loc 1 78 9 is_stmt 1 view .LVU28
 162 0014 0022     		movs	r2, #0
 163 0016 034B     		ldr	r3, .L15
 164 0018 1988     		ldrh	r1, [r3]
 165 001a 034B     		ldr	r3, .L15+4
 166 001c 1868     		ldr	r0, [r3]
 167              	.LVL13:
  78:Drivers/Radio/Src/MY_NRF24.c **** }
 168              		.loc 1 78 9 is_stmt 0 view .LVU29
 169 001e FFF7FEFF 		bl	HAL_GPIO_WritePin
 170              	.LVL14:
 171              		.loc 1 79 1 view .LVU30
 172 0022 F6E7     		b	.L11
 173              	.L16:
 174              		.align	2
 175              	.L15:
 176 0024 00000000 		.word	.LANCHOR2
 177 0028 00000000 		.word	.LANCHOR1
 178              		.cfi_endproc
 179              	.LFE77:
 181              		.section	.text.NRF24_read_register,"ax",%progbits
 182              		.align	1
 183              		.global	NRF24_read_register
 184              		.syntax unified
 185              		.thumb
 186              		.thumb_func
 188              	NRF24_read_register:
 189              	.LVL15:
 190              	.LFB78:
  80:Drivers/Radio/Src/MY_NRF24.c **** // 3. Read single byte from a register
  81:Drivers/Radio/Src/MY_NRF24.c **** uint8_t NRF24_read_register(uint8_t reg) {
 191              		.loc 1 81 42 is_stmt 1 view -0
 192              		.cfi_startproc
 193              		@ args = 0, pretend = 0, frame = 8
 194              		@ frame_needed = 0, uses_anonymous_args = 0
 195              		.loc 1 81 42 is_stmt 0 view .LVU32
 196 0000 10B5     		push	{r4, lr}
 197              	.LCFI2:
 198              		.cfi_def_cfa_offset 8
 199              		.cfi_offset 4, -8
 200              		.cfi_offset 14, -4
 201 0002 82B0     		sub	sp, sp, #8
 202              	.LCFI3:
 203              		.cfi_def_cfa_offset 16
 204 0004 0446     		mov	r4, r0
ARM GAS  C:\Users\sangt\AppData\Local\Temp\cc6s9Yz8.s 			page 6


  82:Drivers/Radio/Src/MY_NRF24.c ****     uint8_t spiBuf[3];
 205              		.loc 1 82 5 is_stmt 1 view .LVU33
  83:Drivers/Radio/Src/MY_NRF24.c ****     uint8_t retData;
 206              		.loc 1 83 5 view .LVU34
  84:Drivers/Radio/Src/MY_NRF24.c ****     // Put CSN low
  85:Drivers/Radio/Src/MY_NRF24.c ****     NRF24_csn(0);
 207              		.loc 1 85 5 view .LVU35
 208 0006 0020     		movs	r0, #0
 209              	.LVL16:
 210              		.loc 1 85 5 is_stmt 0 view .LVU36
 211 0008 FFF7FEFF 		bl	NRF24_csn
 212              	.LVL17:
  86:Drivers/Radio/Src/MY_NRF24.c ****     // Transmit register address
  87:Drivers/Radio/Src/MY_NRF24.c ****     spiBuf[0] = reg & 0x1F;
 213              		.loc 1 87 5 is_stmt 1 view .LVU37
 214              		.loc 1 87 21 is_stmt 0 view .LVU38
 215 000c 04F01F04 		and	r4, r4, #31
 216              		.loc 1 87 15 view .LVU39
 217 0010 8DF80440 		strb	r4, [sp, #4]
  88:Drivers/Radio/Src/MY_NRF24.c ****     HAL_SPI_Transmit(&nrf24_hspi, spiBuf, 1, 100);
 218              		.loc 1 88 5 is_stmt 1 view .LVU40
 219 0014 0A4C     		ldr	r4, .L19
 220 0016 6423     		movs	r3, #100
 221 0018 0122     		movs	r2, #1
 222 001a 01A9     		add	r1, sp, #4
 223 001c 2046     		mov	r0, r4
 224 001e FFF7FEFF 		bl	HAL_SPI_Transmit
 225              	.LVL18:
  89:Drivers/Radio/Src/MY_NRF24.c ****     // Receive data
  90:Drivers/Radio/Src/MY_NRF24.c ****     HAL_SPI_Receive(&nrf24_hspi, &spiBuf[1], 1, 100);
 226              		.loc 1 90 5 view .LVU41
 227 0022 6423     		movs	r3, #100
 228 0024 0122     		movs	r2, #1
 229 0026 0DF10501 		add	r1, sp, #5
 230 002a 2046     		mov	r0, r4
 231 002c FFF7FEFF 		bl	HAL_SPI_Receive
 232              	.LVL19:
  91:Drivers/Radio/Src/MY_NRF24.c ****     retData = spiBuf[1];
 233              		.loc 1 91 5 view .LVU42
 234              		.loc 1 91 13 is_stmt 0 view .LVU43
 235 0030 9DF80540 		ldrb	r4, [sp, #5]	@ zero_extendqisi2
 236              	.LVL20:
  92:Drivers/Radio/Src/MY_NRF24.c ****     // Bring CSN high
  93:Drivers/Radio/Src/MY_NRF24.c ****     NRF24_csn(1);
 237              		.loc 1 93 5 is_stmt 1 view .LVU44
 238 0034 0120     		movs	r0, #1
 239 0036 FFF7FEFF 		bl	NRF24_csn
 240              	.LVL21:
  94:Drivers/Radio/Src/MY_NRF24.c ****     return retData;
 241              		.loc 1 94 5 view .LVU45
  95:Drivers/Radio/Src/MY_NRF24.c **** }
 242              		.loc 1 95 1 is_stmt 0 view .LVU46
 243 003a 2046     		mov	r0, r4
 244 003c 02B0     		add	sp, sp, #8
 245              	.LCFI4:
 246              		.cfi_def_cfa_offset 8
 247              		@ sp needed
ARM GAS  C:\Users\sangt\AppData\Local\Temp\cc6s9Yz8.s 			page 7


 248 003e 10BD     		pop	{r4, pc}
 249              	.LVL22:
 250              	.L20:
 251              		.loc 1 95 1 view .LVU47
 252              		.align	2
 253              	.L19:
 254 0040 00000000 		.word	.LANCHOR3
 255              		.cfi_endproc
 256              	.LFE78:
 258              		.section	.text.NRF24_read_registerN,"ax",%progbits
 259              		.align	1
 260              		.global	NRF24_read_registerN
 261              		.syntax unified
 262              		.thumb
 263              		.thumb_func
 265              	NRF24_read_registerN:
 266              	.LVL23:
 267              	.LFB79:
  96:Drivers/Radio/Src/MY_NRF24.c **** // 4. Read multiple bytes register
  97:Drivers/Radio/Src/MY_NRF24.c **** void NRF24_read_registerN(uint8_t reg, uint8_t *buf, uint8_t len) {
 268              		.loc 1 97 67 is_stmt 1 view -0
 269              		.cfi_startproc
 270              		@ args = 0, pretend = 0, frame = 8
 271              		@ frame_needed = 0, uses_anonymous_args = 0
 272              		.loc 1 97 67 is_stmt 0 view .LVU49
 273 0000 70B5     		push	{r4, r5, r6, lr}
 274              	.LCFI5:
 275              		.cfi_def_cfa_offset 16
 276              		.cfi_offset 4, -16
 277              		.cfi_offset 5, -12
 278              		.cfi_offset 6, -8
 279              		.cfi_offset 14, -4
 280 0002 82B0     		sub	sp, sp, #8
 281              	.LCFI6:
 282              		.cfi_def_cfa_offset 24
 283 0004 0446     		mov	r4, r0
 284 0006 0D46     		mov	r5, r1
 285 0008 1646     		mov	r6, r2
  98:Drivers/Radio/Src/MY_NRF24.c ****     uint8_t spiBuf[3];
 286              		.loc 1 98 5 is_stmt 1 view .LVU50
  99:Drivers/Radio/Src/MY_NRF24.c ****     // Put CSN low
 100:Drivers/Radio/Src/MY_NRF24.c ****     NRF24_csn(0);
 287              		.loc 1 100 5 view .LVU51
 288 000a 0020     		movs	r0, #0
 289              	.LVL24:
 290              		.loc 1 100 5 is_stmt 0 view .LVU52
 291 000c FFF7FEFF 		bl	NRF24_csn
 292              	.LVL25:
 101:Drivers/Radio/Src/MY_NRF24.c ****     // Transmit register address
 102:Drivers/Radio/Src/MY_NRF24.c ****     spiBuf[0] = reg & 0x1F;
 293              		.loc 1 102 5 is_stmt 1 view .LVU53
 294              		.loc 1 102 21 is_stmt 0 view .LVU54
 295 0010 04F01F04 		and	r4, r4, #31
 296              		.loc 1 102 15 view .LVU55
 297 0014 8DF80440 		strb	r4, [sp, #4]
 103:Drivers/Radio/Src/MY_NRF24.c ****     // spiStatus = NRF24_SPI_Write(spiBuf, 1);
 104:Drivers/Radio/Src/MY_NRF24.c ****     HAL_SPI_Transmit(&nrf24_hspi, spiBuf, 1, 100);
ARM GAS  C:\Users\sangt\AppData\Local\Temp\cc6s9Yz8.s 			page 8


 298              		.loc 1 104 5 is_stmt 1 view .LVU56
 299 0018 084C     		ldr	r4, .L23
 300 001a 6423     		movs	r3, #100
 301 001c 0122     		movs	r2, #1
 302 001e 01A9     		add	r1, sp, #4
 303 0020 2046     		mov	r0, r4
 304 0022 FFF7FEFF 		bl	HAL_SPI_Transmit
 305              	.LVL26:
 105:Drivers/Radio/Src/MY_NRF24.c ****     // Receive data
 106:Drivers/Radio/Src/MY_NRF24.c ****     HAL_SPI_Receive(&nrf24_hspi, buf, len, 100);
 306              		.loc 1 106 5 view .LVU57
 307 0026 6423     		movs	r3, #100
 308 0028 3246     		mov	r2, r6
 309 002a 2946     		mov	r1, r5
 310 002c 2046     		mov	r0, r4
 311 002e FFF7FEFF 		bl	HAL_SPI_Receive
 312              	.LVL27:
 107:Drivers/Radio/Src/MY_NRF24.c ****     // Bring CSN high
 108:Drivers/Radio/Src/MY_NRF24.c ****     NRF24_csn(1);
 313              		.loc 1 108 5 view .LVU58
 314 0032 0120     		movs	r0, #1
 315 0034 FFF7FEFF 		bl	NRF24_csn
 316              	.LVL28:
 109:Drivers/Radio/Src/MY_NRF24.c **** }
 317              		.loc 1 109 1 is_stmt 0 view .LVU59
 318 0038 02B0     		add	sp, sp, #8
 319              	.LCFI7:
 320              		.cfi_def_cfa_offset 16
 321              		@ sp needed
 322 003a 70BD     		pop	{r4, r5, r6, pc}
 323              	.LVL29:
 324              	.L24:
 325              		.loc 1 109 1 view .LVU60
 326              		.align	2
 327              	.L23:
 328 003c 00000000 		.word	.LANCHOR3
 329              		.cfi_endproc
 330              	.LFE79:
 332              		.section	.text.NRF24_write_register,"ax",%progbits
 333              		.align	1
 334              		.global	NRF24_write_register
 335              		.syntax unified
 336              		.thumb
 337              		.thumb_func
 339              	NRF24_write_register:
 340              	.LVL30:
 341              	.LFB80:
 110:Drivers/Radio/Src/MY_NRF24.c **** // 5. Write single byte register
 111:Drivers/Radio/Src/MY_NRF24.c **** void NRF24_write_register(uint8_t reg, uint8_t value) {
 342              		.loc 1 111 55 is_stmt 1 view -0
 343              		.cfi_startproc
 344              		@ args = 0, pretend = 0, frame = 8
 345              		@ frame_needed = 0, uses_anonymous_args = 0
 346              		.loc 1 111 55 is_stmt 0 view .LVU62
 347 0000 30B5     		push	{r4, r5, lr}
 348              	.LCFI8:
 349              		.cfi_def_cfa_offset 12
ARM GAS  C:\Users\sangt\AppData\Local\Temp\cc6s9Yz8.s 			page 9


 350              		.cfi_offset 4, -12
 351              		.cfi_offset 5, -8
 352              		.cfi_offset 14, -4
 353 0002 83B0     		sub	sp, sp, #12
 354              	.LCFI9:
 355              		.cfi_def_cfa_offset 24
 356 0004 0446     		mov	r4, r0
 357 0006 0D46     		mov	r5, r1
 112:Drivers/Radio/Src/MY_NRF24.c ****     uint8_t spiBuf[3];
 358              		.loc 1 112 5 is_stmt 1 view .LVU63
 113:Drivers/Radio/Src/MY_NRF24.c ****     // Put CSN low
 114:Drivers/Radio/Src/MY_NRF24.c ****     NRF24_csn(0);
 359              		.loc 1 114 5 view .LVU64
 360 0008 0020     		movs	r0, #0
 361              	.LVL31:
 362              		.loc 1 114 5 is_stmt 0 view .LVU65
 363 000a FFF7FEFF 		bl	NRF24_csn
 364              	.LVL32:
 115:Drivers/Radio/Src/MY_NRF24.c ****     // Transmit register address and data
 116:Drivers/Radio/Src/MY_NRF24.c ****     spiBuf[0] = reg | 0x20;
 365              		.loc 1 116 5 is_stmt 1 view .LVU66
 366              		.loc 1 116 15 is_stmt 0 view .LVU67
 367 000e 44F02004 		orr	r4, r4, #32
 368 0012 8DF80440 		strb	r4, [sp, #4]
 117:Drivers/Radio/Src/MY_NRF24.c ****     spiBuf[1] = value;
 369              		.loc 1 117 5 is_stmt 1 view .LVU68
 370              		.loc 1 117 15 is_stmt 0 view .LVU69
 371 0016 8DF80550 		strb	r5, [sp, #5]
 118:Drivers/Radio/Src/MY_NRF24.c ****     HAL_SPI_Transmit(&nrf24_hspi, spiBuf, 2, 100);
 372              		.loc 1 118 5 is_stmt 1 view .LVU70
 373 001a 6423     		movs	r3, #100
 374 001c 0222     		movs	r2, #2
 375 001e 01A9     		add	r1, sp, #4
 376 0020 0348     		ldr	r0, .L27
 377 0022 FFF7FEFF 		bl	HAL_SPI_Transmit
 378              	.LVL33:
 119:Drivers/Radio/Src/MY_NRF24.c ****     // Bring CSN high
 120:Drivers/Radio/Src/MY_NRF24.c ****     NRF24_csn(1);
 379              		.loc 1 120 5 view .LVU71
 380 0026 0120     		movs	r0, #1
 381 0028 FFF7FEFF 		bl	NRF24_csn
 382              	.LVL34:
 121:Drivers/Radio/Src/MY_NRF24.c **** }
 383              		.loc 1 121 1 is_stmt 0 view .LVU72
 384 002c 03B0     		add	sp, sp, #12
 385              	.LCFI10:
 386              		.cfi_def_cfa_offset 12
 387              		@ sp needed
 388 002e 30BD     		pop	{r4, r5, pc}
 389              	.L28:
 390              		.align	2
 391              	.L27:
 392 0030 00000000 		.word	.LANCHOR3
 393              		.cfi_endproc
 394              	.LFE80:
 396              		.section	.text.NRF24_write_registerN,"ax",%progbits
 397              		.align	1
ARM GAS  C:\Users\sangt\AppData\Local\Temp\cc6s9Yz8.s 			page 10


 398              		.global	NRF24_write_registerN
 399              		.syntax unified
 400              		.thumb
 401              		.thumb_func
 403              	NRF24_write_registerN:
 404              	.LVL35:
 405              	.LFB81:
 122:Drivers/Radio/Src/MY_NRF24.c **** // 6. Write multipl bytes register
 123:Drivers/Radio/Src/MY_NRF24.c **** void NRF24_write_registerN(uint8_t reg, const uint8_t *buf, uint8_t len) {
 406              		.loc 1 123 74 is_stmt 1 view -0
 407              		.cfi_startproc
 408              		@ args = 0, pretend = 0, frame = 8
 409              		@ frame_needed = 0, uses_anonymous_args = 0
 410              		.loc 1 123 74 is_stmt 0 view .LVU74
 411 0000 70B5     		push	{r4, r5, r6, lr}
 412              	.LCFI11:
 413              		.cfi_def_cfa_offset 16
 414              		.cfi_offset 4, -16
 415              		.cfi_offset 5, -12
 416              		.cfi_offset 6, -8
 417              		.cfi_offset 14, -4
 418 0002 82B0     		sub	sp, sp, #8
 419              	.LCFI12:
 420              		.cfi_def_cfa_offset 24
 421 0004 0446     		mov	r4, r0
 422 0006 0D46     		mov	r5, r1
 423 0008 1646     		mov	r6, r2
 124:Drivers/Radio/Src/MY_NRF24.c ****     uint8_t spiBuf[3];
 424              		.loc 1 124 5 is_stmt 1 view .LVU75
 125:Drivers/Radio/Src/MY_NRF24.c ****     // Put CSN low
 126:Drivers/Radio/Src/MY_NRF24.c ****     NRF24_csn(0);
 425              		.loc 1 126 5 view .LVU76
 426 000a 0020     		movs	r0, #0
 427              	.LVL36:
 428              		.loc 1 126 5 is_stmt 0 view .LVU77
 429 000c FFF7FEFF 		bl	NRF24_csn
 430              	.LVL37:
 127:Drivers/Radio/Src/MY_NRF24.c ****     // Transmit register address and data
 128:Drivers/Radio/Src/MY_NRF24.c ****     spiBuf[0] = reg | 0x20;
 431              		.loc 1 128 5 is_stmt 1 view .LVU78
 432              		.loc 1 128 15 is_stmt 0 view .LVU79
 433 0010 44F02004 		orr	r4, r4, #32
 434 0014 8DF80440 		strb	r4, [sp, #4]
 129:Drivers/Radio/Src/MY_NRF24.c ****     HAL_SPI_Transmit(&nrf24_hspi, spiBuf, 1, 100);
 435              		.loc 1 129 5 is_stmt 1 view .LVU80
 436 0018 084C     		ldr	r4, .L31
 437 001a 6423     		movs	r3, #100
 438 001c 0122     		movs	r2, #1
 439 001e 01A9     		add	r1, sp, #4
 440 0020 2046     		mov	r0, r4
 441 0022 FFF7FEFF 		bl	HAL_SPI_Transmit
 442              	.LVL38:
 130:Drivers/Radio/Src/MY_NRF24.c ****     HAL_SPI_Transmit(&nrf24_hspi, (uint8_t *)buf, len, 100);
 443              		.loc 1 130 5 view .LVU81
 444 0026 6423     		movs	r3, #100
 445 0028 3246     		mov	r2, r6
 446 002a 2946     		mov	r1, r5
ARM GAS  C:\Users\sangt\AppData\Local\Temp\cc6s9Yz8.s 			page 11


 447 002c 2046     		mov	r0, r4
 448 002e FFF7FEFF 		bl	HAL_SPI_Transmit
 449              	.LVL39:
 131:Drivers/Radio/Src/MY_NRF24.c ****     // Bring CSN high
 132:Drivers/Radio/Src/MY_NRF24.c ****     NRF24_csn(1);
 450              		.loc 1 132 5 view .LVU82
 451 0032 0120     		movs	r0, #1
 452 0034 FFF7FEFF 		bl	NRF24_csn
 453              	.LVL40:
 133:Drivers/Radio/Src/MY_NRF24.c **** }
 454              		.loc 1 133 1 is_stmt 0 view .LVU83
 455 0038 02B0     		add	sp, sp, #8
 456              	.LCFI13:
 457              		.cfi_def_cfa_offset 16
 458              		@ sp needed
 459 003a 70BD     		pop	{r4, r5, r6, pc}
 460              	.LVL41:
 461              	.L32:
 462              		.loc 1 133 1 view .LVU84
 463              		.align	2
 464              	.L31:
 465 003c 00000000 		.word	.LANCHOR3
 466              		.cfi_endproc
 467              	.LFE81:
 469              		.section	.text.NRF24_write_payload,"ax",%progbits
 470              		.align	1
 471              		.global	NRF24_write_payload
 472              		.syntax unified
 473              		.thumb
 474              		.thumb_func
 476              	NRF24_write_payload:
 477              	.LVL42:
 478              	.LFB82:
 134:Drivers/Radio/Src/MY_NRF24.c **** // 7. Write transmit payload
 135:Drivers/Radio/Src/MY_NRF24.c **** void NRF24_write_payload(const void *buf, uint8_t len) {
 479              		.loc 1 135 56 is_stmt 1 view -0
 480              		.cfi_startproc
 481              		@ args = 0, pretend = 0, frame = 8
 482              		@ frame_needed = 0, uses_anonymous_args = 0
 483              		.loc 1 135 56 is_stmt 0 view .LVU86
 484 0000 70B5     		push	{r4, r5, r6, lr}
 485              	.LCFI14:
 486              		.cfi_def_cfa_offset 16
 487              		.cfi_offset 4, -16
 488              		.cfi_offset 5, -12
 489              		.cfi_offset 6, -8
 490              		.cfi_offset 14, -4
 491 0002 82B0     		sub	sp, sp, #8
 492              	.LCFI15:
 493              		.cfi_def_cfa_offset 24
 494 0004 0446     		mov	r4, r0
 495 0006 0D46     		mov	r5, r1
 136:Drivers/Radio/Src/MY_NRF24.c ****     uint8_t wrPayloadCmd;
 496              		.loc 1 136 5 is_stmt 1 view .LVU87
 137:Drivers/Radio/Src/MY_NRF24.c ****     // Bring CSN low
 138:Drivers/Radio/Src/MY_NRF24.c ****     NRF24_csn(0);
 497              		.loc 1 138 5 view .LVU88
ARM GAS  C:\Users\sangt\AppData\Local\Temp\cc6s9Yz8.s 			page 12


 498 0008 0020     		movs	r0, #0
 499              	.LVL43:
 500              		.loc 1 138 5 is_stmt 0 view .LVU89
 501 000a FFF7FEFF 		bl	NRF24_csn
 502              	.LVL44:
 139:Drivers/Radio/Src/MY_NRF24.c ****     // Send Write Tx payload command followed by pbuf data
 140:Drivers/Radio/Src/MY_NRF24.c ****     wrPayloadCmd = CMD_W_TX_PAYLOAD;
 503              		.loc 1 140 5 is_stmt 1 view .LVU90
 504              		.loc 1 140 18 is_stmt 0 view .LVU91
 505 000e A023     		movs	r3, #160
 506 0010 8DF80730 		strb	r3, [sp, #7]
 141:Drivers/Radio/Src/MY_NRF24.c ****     HAL_SPI_Transmit(&nrf24_hspi, &wrPayloadCmd, 1, 100);
 507              		.loc 1 141 5 is_stmt 1 view .LVU92
 508 0014 094E     		ldr	r6, .L35
 509 0016 6423     		movs	r3, #100
 510 0018 0122     		movs	r2, #1
 511 001a 0DF10701 		add	r1, sp, #7
 512 001e 3046     		mov	r0, r6
 513 0020 FFF7FEFF 		bl	HAL_SPI_Transmit
 514              	.LVL45:
 142:Drivers/Radio/Src/MY_NRF24.c ****     HAL_SPI_Transmit(&nrf24_hspi, (uint8_t *)buf, len, 100);
 515              		.loc 1 142 5 view .LVU93
 516 0024 6423     		movs	r3, #100
 517 0026 2A46     		mov	r2, r5
 518 0028 2146     		mov	r1, r4
 519 002a 3046     		mov	r0, r6
 520 002c FFF7FEFF 		bl	HAL_SPI_Transmit
 521              	.LVL46:
 143:Drivers/Radio/Src/MY_NRF24.c ****     // Bring CSN high
 144:Drivers/Radio/Src/MY_NRF24.c ****     NRF24_csn(1);
 522              		.loc 1 144 5 view .LVU94
 523 0030 0120     		movs	r0, #1
 524 0032 FFF7FEFF 		bl	NRF24_csn
 525              	.LVL47:
 145:Drivers/Radio/Src/MY_NRF24.c **** }
 526              		.loc 1 145 1 is_stmt 0 view .LVU95
 527 0036 02B0     		add	sp, sp, #8
 528              	.LCFI16:
 529              		.cfi_def_cfa_offset 16
 530              		@ sp needed
 531 0038 70BD     		pop	{r4, r5, r6, pc}
 532              	.LVL48:
 533              	.L36:
 534              		.loc 1 145 1 view .LVU96
 535 003a 00BF     		.align	2
 536              	.L35:
 537 003c 00000000 		.word	.LANCHOR3
 538              		.cfi_endproc
 539              	.LFE82:
 541              		.section	.text.NRF24_flush_tx,"ax",%progbits
 542              		.align	1
 543              		.global	NRF24_flush_tx
 544              		.syntax unified
 545              		.thumb
 546              		.thumb_func
 548              	NRF24_flush_tx:
 549              	.LFB84:
ARM GAS  C:\Users\sangt\AppData\Local\Temp\cc6s9Yz8.s 			page 13


 146:Drivers/Radio/Src/MY_NRF24.c **** // 8. Read receive payload
 147:Drivers/Radio/Src/MY_NRF24.c **** void NRF24_read_payload(void *buf, uint8_t len) {
 148:Drivers/Radio/Src/MY_NRF24.c ****     uint8_t cmdRxBuf;
 149:Drivers/Radio/Src/MY_NRF24.c ****     // Get data length using payload size
 150:Drivers/Radio/Src/MY_NRF24.c ****     uint8_t data_len = MIN(len, NRF24_getPayloadSize());
 151:Drivers/Radio/Src/MY_NRF24.c ****     // Read data from Rx payload buffer
 152:Drivers/Radio/Src/MY_NRF24.c ****     NRF24_csn(0);
 153:Drivers/Radio/Src/MY_NRF24.c ****     cmdRxBuf = CMD_R_RX_PAYLOAD;
 154:Drivers/Radio/Src/MY_NRF24.c ****     HAL_SPI_Transmit(&nrf24_hspi, &cmdRxBuf, 1, 100);
 155:Drivers/Radio/Src/MY_NRF24.c ****     HAL_SPI_Receive(&nrf24_hspi, buf, data_len, 100);
 156:Drivers/Radio/Src/MY_NRF24.c ****     NRF24_csn(1);
 157:Drivers/Radio/Src/MY_NRF24.c **** }
 158:Drivers/Radio/Src/MY_NRF24.c **** 
 159:Drivers/Radio/Src/MY_NRF24.c **** // 9. Flush Tx buffer
 160:Drivers/Radio/Src/MY_NRF24.c **** void NRF24_flush_tx(void) { NRF24_write_register(CMD_FLUSH_TX, 0xFF); }
 550              		.loc 1 160 27 is_stmt 1 view -0
 551              		.cfi_startproc
 552              		@ args = 0, pretend = 0, frame = 0
 553              		@ frame_needed = 0, uses_anonymous_args = 0
 554 0000 08B5     		push	{r3, lr}
 555              	.LCFI17:
 556              		.cfi_def_cfa_offset 8
 557              		.cfi_offset 3, -8
 558              		.cfi_offset 14, -4
 559              		.loc 1 160 29 view .LVU98
 560 0002 FF21     		movs	r1, #255
 561 0004 E120     		movs	r0, #225
 562 0006 FFF7FEFF 		bl	NRF24_write_register
 563              	.LVL49:
 564              		.loc 1 160 71 is_stmt 0 view .LVU99
 565 000a 08BD     		pop	{r3, pc}
 566              		.cfi_endproc
 567              	.LFE84:
 569              		.section	.text.NRF24_flush_rx,"ax",%progbits
 570              		.align	1
 571              		.global	NRF24_flush_rx
 572              		.syntax unified
 573              		.thumb
 574              		.thumb_func
 576              	NRF24_flush_rx:
 577              	.LFB85:
 161:Drivers/Radio/Src/MY_NRF24.c **** // 10. Flush Rx buffer
 162:Drivers/Radio/Src/MY_NRF24.c **** void NRF24_flush_rx(void) { NRF24_write_register(CMD_FLUSH_RX, 0xFF); }
 578              		.loc 1 162 27 is_stmt 1 view -0
 579              		.cfi_startproc
 580              		@ args = 0, pretend = 0, frame = 0
 581              		@ frame_needed = 0, uses_anonymous_args = 0
 582 0000 08B5     		push	{r3, lr}
 583              	.LCFI18:
 584              		.cfi_def_cfa_offset 8
 585              		.cfi_offset 3, -8
 586              		.cfi_offset 14, -4
 587              		.loc 1 162 29 view .LVU101
 588 0002 FF21     		movs	r1, #255
 589 0004 E220     		movs	r0, #226
 590 0006 FFF7FEFF 		bl	NRF24_write_register
 591              	.LVL50:
ARM GAS  C:\Users\sangt\AppData\Local\Temp\cc6s9Yz8.s 			page 14


 592              		.loc 1 162 71 is_stmt 0 view .LVU102
 593 000a 08BD     		pop	{r3, pc}
 594              		.cfi_endproc
 595              	.LFE85:
 597              		.section	.text.NRF24_get_status,"ax",%progbits
 598              		.align	1
 599              		.global	NRF24_get_status
 600              		.syntax unified
 601              		.thumb
 602              		.thumb_func
 604              	NRF24_get_status:
 605              	.LFB86:
 163:Drivers/Radio/Src/MY_NRF24.c **** // 11. Get status register value
 164:Drivers/Radio/Src/MY_NRF24.c **** uint8_t NRF24_get_status(void) {
 606              		.loc 1 164 32 is_stmt 1 view -0
 607              		.cfi_startproc
 608              		@ args = 0, pretend = 0, frame = 0
 609              		@ frame_needed = 0, uses_anonymous_args = 0
 610 0000 08B5     		push	{r3, lr}
 611              	.LCFI19:
 612              		.cfi_def_cfa_offset 8
 613              		.cfi_offset 3, -8
 614              		.cfi_offset 14, -4
 165:Drivers/Radio/Src/MY_NRF24.c ****     uint8_t statReg;
 615              		.loc 1 165 5 view .LVU104
 166:Drivers/Radio/Src/MY_NRF24.c ****     statReg = NRF24_read_register(REG_STATUS);
 616              		.loc 1 166 5 view .LVU105
 617              		.loc 1 166 15 is_stmt 0 view .LVU106
 618 0002 0720     		movs	r0, #7
 619 0004 FFF7FEFF 		bl	NRF24_read_register
 620              	.LVL51:
 167:Drivers/Radio/Src/MY_NRF24.c ****     return statReg;
 621              		.loc 1 167 5 is_stmt 1 view .LVU107
 168:Drivers/Radio/Src/MY_NRF24.c **** }
 622              		.loc 1 168 1 is_stmt 0 view .LVU108
 623 0008 08BD     		pop	{r3, pc}
 624              		.cfi_endproc
 625              	.LFE86:
 627              		.section	.text.NRF24_startListening,"ax",%progbits
 628              		.align	1
 629              		.global	NRF24_startListening
 630              		.syntax unified
 631              		.thumb
 632              		.thumb_func
 634              	NRF24_startListening:
 635              	.LFB88:
 169:Drivers/Radio/Src/MY_NRF24.c **** 
 170:Drivers/Radio/Src/MY_NRF24.c **** // 12. Begin function
 171:Drivers/Radio/Src/MY_NRF24.c **** void NRF24_begin(GPIO_TypeDef *nrf24PORT, uint16_t nrfCSN_Pin,
 172:Drivers/Radio/Src/MY_NRF24.c ****                  uint16_t nrfCE_Pin, SPI_HandleTypeDef nrfSPI) {
 173:Drivers/Radio/Src/MY_NRF24.c ****     // Copy SPI handle variable
 174:Drivers/Radio/Src/MY_NRF24.c ****     memcpy(&nrf24_hspi, &nrfSPI, sizeof(nrfSPI));
 175:Drivers/Radio/Src/MY_NRF24.c ****     // Copy Pins and Port variables
 176:Drivers/Radio/Src/MY_NRF24.c ****     nrf24_PORT = nrf24PORT;
 177:Drivers/Radio/Src/MY_NRF24.c ****     nrf24_CSN_PIN = nrfCSN_Pin;
 178:Drivers/Radio/Src/MY_NRF24.c ****     nrf24_CE_PIN = nrfCE_Pin;
 179:Drivers/Radio/Src/MY_NRF24.c **** 
ARM GAS  C:\Users\sangt\AppData\Local\Temp\cc6s9Yz8.s 			page 15


 180:Drivers/Radio/Src/MY_NRF24.c ****     // Put pins to idle state
 181:Drivers/Radio/Src/MY_NRF24.c ****     NRF24_csn(1);
 182:Drivers/Radio/Src/MY_NRF24.c ****     NRF24_ce(0);
 183:Drivers/Radio/Src/MY_NRF24.c ****     // 5 ms initial delay
 184:Drivers/Radio/Src/MY_NRF24.c ****     HAL_Delay(5);
 185:Drivers/Radio/Src/MY_NRF24.c **** 
 186:Drivers/Radio/Src/MY_NRF24.c ****     //**** Soft Reset Registers default values ****//
 187:Drivers/Radio/Src/MY_NRF24.c ****     NRF24_write_register(0x00, 0x08);
 188:Drivers/Radio/Src/MY_NRF24.c ****     NRF24_write_register(0x01, 0x3f);
 189:Drivers/Radio/Src/MY_NRF24.c ****     NRF24_write_register(0x02, 0x03);
 190:Drivers/Radio/Src/MY_NRF24.c ****     NRF24_write_register(0x03, 0x03);
 191:Drivers/Radio/Src/MY_NRF24.c ****     NRF24_write_register(0x04, 0x03);
 192:Drivers/Radio/Src/MY_NRF24.c ****     NRF24_write_register(0x05, 0x02);
 193:Drivers/Radio/Src/MY_NRF24.c ****     NRF24_write_register(0x06, 0x0f);
 194:Drivers/Radio/Src/MY_NRF24.c ****     NRF24_write_register(0x07, 0x0e);
 195:Drivers/Radio/Src/MY_NRF24.c ****     NRF24_write_register(0x08, 0x00);
 196:Drivers/Radio/Src/MY_NRF24.c ****     NRF24_write_register(0x09, 0x00);
 197:Drivers/Radio/Src/MY_NRF24.c ****     uint8_t pipeAddrVar[6];
 198:Drivers/Radio/Src/MY_NRF24.c ****     pipeAddrVar[4] = 0xE7;
 199:Drivers/Radio/Src/MY_NRF24.c ****     pipeAddrVar[3] = 0xE7;
 200:Drivers/Radio/Src/MY_NRF24.c ****     pipeAddrVar[2] = 0xE7;
 201:Drivers/Radio/Src/MY_NRF24.c ****     pipeAddrVar[1] = 0xE7;
 202:Drivers/Radio/Src/MY_NRF24.c ****     pipeAddrVar[0] = 0xE7;
 203:Drivers/Radio/Src/MY_NRF24.c ****     NRF24_write_registerN(0x0A, pipeAddrVar, 5);
 204:Drivers/Radio/Src/MY_NRF24.c ****     pipeAddrVar[4] = 0xC2;
 205:Drivers/Radio/Src/MY_NRF24.c ****     pipeAddrVar[3] = 0xC2;
 206:Drivers/Radio/Src/MY_NRF24.c ****     pipeAddrVar[2] = 0xC2;
 207:Drivers/Radio/Src/MY_NRF24.c ****     pipeAddrVar[1] = 0xC2;
 208:Drivers/Radio/Src/MY_NRF24.c ****     pipeAddrVar[0] = 0xC2;
 209:Drivers/Radio/Src/MY_NRF24.c ****     NRF24_write_registerN(0x0B, pipeAddrVar, 5);
 210:Drivers/Radio/Src/MY_NRF24.c ****     NRF24_write_register(0x0C, 0xC3);
 211:Drivers/Radio/Src/MY_NRF24.c ****     NRF24_write_register(0x0D, 0xC4);
 212:Drivers/Radio/Src/MY_NRF24.c ****     NRF24_write_register(0x0E, 0xC5);
 213:Drivers/Radio/Src/MY_NRF24.c ****     NRF24_write_register(0x0F, 0xC6);
 214:Drivers/Radio/Src/MY_NRF24.c ****     pipeAddrVar[4] = 0xE7;
 215:Drivers/Radio/Src/MY_NRF24.c ****     pipeAddrVar[3] = 0xE7;
 216:Drivers/Radio/Src/MY_NRF24.c ****     pipeAddrVar[2] = 0xE7;
 217:Drivers/Radio/Src/MY_NRF24.c ****     pipeAddrVar[1] = 0xE7;
 218:Drivers/Radio/Src/MY_NRF24.c ****     pipeAddrVar[0] = 0xE7;
 219:Drivers/Radio/Src/MY_NRF24.c ****     NRF24_write_registerN(0x10, pipeAddrVar, 5);
 220:Drivers/Radio/Src/MY_NRF24.c ****     NRF24_write_register(0x11, 0);
 221:Drivers/Radio/Src/MY_NRF24.c ****     NRF24_write_register(0x12, 0);
 222:Drivers/Radio/Src/MY_NRF24.c ****     NRF24_write_register(0x13, 0);
 223:Drivers/Radio/Src/MY_NRF24.c ****     NRF24_write_register(0x14, 0);
 224:Drivers/Radio/Src/MY_NRF24.c ****     NRF24_write_register(0x15, 0);
 225:Drivers/Radio/Src/MY_NRF24.c ****     NRF24_write_register(0x16, 0);
 226:Drivers/Radio/Src/MY_NRF24.c **** 
 227:Drivers/Radio/Src/MY_NRF24.c ****     NRF24_ACTIVATE_cmd();
 228:Drivers/Radio/Src/MY_NRF24.c ****     NRF24_write_register(0x1c, 0);
 229:Drivers/Radio/Src/MY_NRF24.c ****     NRF24_write_register(0x1d, 0);
 230:Drivers/Radio/Src/MY_NRF24.c ****     // printRadioSettings();
 231:Drivers/Radio/Src/MY_NRF24.c ****     // Initialise retries 15 and delay 4000 usec
 232:Drivers/Radio/Src/MY_NRF24.c ****     NRF24_setRetries(15, 15);
 233:Drivers/Radio/Src/MY_NRF24.c ****     // Initialise PA level to max (0dB)
 234:Drivers/Radio/Src/MY_NRF24.c ****     NRF24_setPALevel(RF24_PA_0dB);
 235:Drivers/Radio/Src/MY_NRF24.c ****     // Initialise data rate to 1Mbps
 236:Drivers/Radio/Src/MY_NRF24.c ****     NRF24_setDataRate(RF24_2MBPS);
ARM GAS  C:\Users\sangt\AppData\Local\Temp\cc6s9Yz8.s 			page 16


 237:Drivers/Radio/Src/MY_NRF24.c ****     // Initalise CRC length to 16-bit (2 bytes)
 238:Drivers/Radio/Src/MY_NRF24.c ****     NRF24_setCRCLength(RF24_CRC_16);
 239:Drivers/Radio/Src/MY_NRF24.c ****     // Disable dynamic payload
 240:Drivers/Radio/Src/MY_NRF24.c ****     NRF24_disableDynamicPayloads();
 241:Drivers/Radio/Src/MY_NRF24.c ****     // Set payload size
 242:Drivers/Radio/Src/MY_NRF24.c ****     NRF24_setPayloadSize(32);
 243:Drivers/Radio/Src/MY_NRF24.c **** 
 244:Drivers/Radio/Src/MY_NRF24.c ****     // Reset status register
 245:Drivers/Radio/Src/MY_NRF24.c ****     NRF24_resetStatus();
 246:Drivers/Radio/Src/MY_NRF24.c ****     // Initialise channel to 76
 247:Drivers/Radio/Src/MY_NRF24.c ****     NRF24_setChannel(76);
 248:Drivers/Radio/Src/MY_NRF24.c ****     // Flush buffers
 249:Drivers/Radio/Src/MY_NRF24.c ****     NRF24_flush_tx();
 250:Drivers/Radio/Src/MY_NRF24.c ****     NRF24_flush_rx();
 251:Drivers/Radio/Src/MY_NRF24.c ****     // Go to standby I state
 252:Drivers/Radio/Src/MY_NRF24.c ****     NRF24_powerUp();
 253:Drivers/Radio/Src/MY_NRF24.c ****     HAL_Delay(5);
 254:Drivers/Radio/Src/MY_NRF24.c **** }
 255:Drivers/Radio/Src/MY_NRF24.c **** // 13. Listen on open pipes for reading (Must call NRF24_openReadingPipe()
 256:Drivers/Radio/Src/MY_NRF24.c **** // first)
 257:Drivers/Radio/Src/MY_NRF24.c **** void NRF24_startListening(void) {
 636              		.loc 1 257 33 is_stmt 1 view -0
 637              		.cfi_startproc
 638              		@ args = 0, pretend = 0, frame = 0
 639              		@ frame_needed = 0, uses_anonymous_args = 0
 640 0000 08B5     		push	{r3, lr}
 641              	.LCFI20:
 642              		.cfi_def_cfa_offset 8
 643              		.cfi_offset 3, -8
 644              		.cfi_offset 14, -4
 258:Drivers/Radio/Src/MY_NRF24.c ****     // Power up and set to RX mode
 259:Drivers/Radio/Src/MY_NRF24.c ****     NRF24_write_register(
 645              		.loc 1 259 5 view .LVU110
 260:Drivers/Radio/Src/MY_NRF24.c ****         REG_CONFIG, NRF24_read_register(REG_CONFIG) | (1UL << 1) | (1UL << 0));
 646              		.loc 1 260 21 is_stmt 0 view .LVU111
 647 0002 0020     		movs	r0, #0
 648 0004 FFF7FEFF 		bl	NRF24_read_register
 649              	.LVL52:
 259:Drivers/Radio/Src/MY_NRF24.c ****         REG_CONFIG, NRF24_read_register(REG_CONFIG) | (1UL << 1) | (1UL << 0));
 650              		.loc 1 259 5 view .LVU112
 651 0008 40F00301 		orr	r1, r0, #3
 652 000c C9B2     		uxtb	r1, r1
 653 000e 0020     		movs	r0, #0
 654 0010 FFF7FEFF 		bl	NRF24_write_register
 655              	.LVL53:
 261:Drivers/Radio/Src/MY_NRF24.c ****     // Restore pipe 0 address if exists
 262:Drivers/Radio/Src/MY_NRF24.c ****     if (pipe0_reading_address)
 656              		.loc 1 262 5 is_stmt 1 view .LVU113
 657              		.loc 1 262 9 is_stmt 0 view .LVU114
 658 0014 094B     		ldr	r3, .L47
 659 0016 1A68     		ldr	r2, [r3]
 660 0018 5B68     		ldr	r3, [r3, #4]
 661              		.loc 1 262 8 view .LVU115
 662 001a 1343     		orrs	r3, r2, r3
 663 001c 07D1     		bne	.L46
 664              	.L44:
 263:Drivers/Radio/Src/MY_NRF24.c ****         NRF24_write_registerN(REG_RX_ADDR_P0,
ARM GAS  C:\Users\sangt\AppData\Local\Temp\cc6s9Yz8.s 			page 17


 264:Drivers/Radio/Src/MY_NRF24.c ****                               (uint8_t *)(&pipe0_reading_address), 5);
 265:Drivers/Radio/Src/MY_NRF24.c **** 
 266:Drivers/Radio/Src/MY_NRF24.c ****     // Flush buffers
 267:Drivers/Radio/Src/MY_NRF24.c ****     NRF24_flush_tx();
 665              		.loc 1 267 5 is_stmt 1 view .LVU116
 666 001e FFF7FEFF 		bl	NRF24_flush_tx
 667              	.LVL54:
 268:Drivers/Radio/Src/MY_NRF24.c ****     NRF24_flush_rx();
 668              		.loc 1 268 5 view .LVU117
 669 0022 FFF7FEFF 		bl	NRF24_flush_rx
 670              	.LVL55:
 269:Drivers/Radio/Src/MY_NRF24.c ****     // Set CE HIGH to start listenning
 270:Drivers/Radio/Src/MY_NRF24.c ****     NRF24_ce(1);
 671              		.loc 1 270 5 view .LVU118
 672 0026 0120     		movs	r0, #1
 673 0028 FFF7FEFF 		bl	NRF24_ce
 674              	.LVL56:
 271:Drivers/Radio/Src/MY_NRF24.c ****     // Wait for 130 uSec for the radio to come on
 272:Drivers/Radio/Src/MY_NRF24.c ****     NRF24_DelayMicroSeconds(150);
 675              		.loc 1 272 5 view .LVU119
 273:Drivers/Radio/Src/MY_NRF24.c **** }
 676              		.loc 1 273 1 is_stmt 0 view .LVU120
 677 002c 08BD     		pop	{r3, pc}
 678              	.L46:
 263:Drivers/Radio/Src/MY_NRF24.c ****                               (uint8_t *)(&pipe0_reading_address), 5);
 679              		.loc 1 263 9 is_stmt 1 view .LVU121
 680 002e 0522     		movs	r2, #5
 681 0030 0249     		ldr	r1, .L47
 682 0032 0A20     		movs	r0, #10
 683 0034 FFF7FEFF 		bl	NRF24_write_registerN
 684              	.LVL57:
 685 0038 F1E7     		b	.L44
 686              	.L48:
 687 003a 00BF     		.align	2
 688              	.L47:
 689 003c 00000000 		.word	.LANCHOR4
 690              		.cfi_endproc
 691              	.LFE88:
 693              		.section	.text.NRF24_stopListening,"ax",%progbits
 694              		.align	1
 695              		.global	NRF24_stopListening
 696              		.syntax unified
 697              		.thumb
 698              		.thumb_func
 700              	NRF24_stopListening:
 701              	.LFB89:
 274:Drivers/Radio/Src/MY_NRF24.c **** // 14. Stop listening (essential before any write operation)
 275:Drivers/Radio/Src/MY_NRF24.c **** void NRF24_stopListening(void) {
 702              		.loc 1 275 32 view -0
 703              		.cfi_startproc
 704              		@ args = 0, pretend = 0, frame = 0
 705              		@ frame_needed = 0, uses_anonymous_args = 0
 706 0000 08B5     		push	{r3, lr}
 707              	.LCFI21:
 708              		.cfi_def_cfa_offset 8
 709              		.cfi_offset 3, -8
 710              		.cfi_offset 14, -4
ARM GAS  C:\Users\sangt\AppData\Local\Temp\cc6s9Yz8.s 			page 18


 276:Drivers/Radio/Src/MY_NRF24.c ****     NRF24_ce(0);
 711              		.loc 1 276 5 view .LVU123
 712 0002 0020     		movs	r0, #0
 713 0004 FFF7FEFF 		bl	NRF24_ce
 714              	.LVL58:
 277:Drivers/Radio/Src/MY_NRF24.c ****     NRF24_flush_tx();
 715              		.loc 1 277 5 view .LVU124
 716 0008 FFF7FEFF 		bl	NRF24_flush_tx
 717              	.LVL59:
 278:Drivers/Radio/Src/MY_NRF24.c ****     NRF24_flush_rx();
 718              		.loc 1 278 5 view .LVU125
 719 000c FFF7FEFF 		bl	NRF24_flush_rx
 720              	.LVL60:
 279:Drivers/Radio/Src/MY_NRF24.c **** }
 721              		.loc 1 279 1 is_stmt 0 view .LVU126
 722 0010 08BD     		pop	{r3, pc}
 723              		.cfi_endproc
 724              	.LFE89:
 726              		.section	.text.NRF24_openWritingPipe,"ax",%progbits
 727              		.align	1
 728              		.global	NRF24_openWritingPipe
 729              		.syntax unified
 730              		.thumb
 731              		.thumb_func
 733              	NRF24_openWritingPipe:
 734              	.LVL61:
 735              	.LFB93:
 280:Drivers/Radio/Src/MY_NRF24.c **** // 15. Write(Transmit data), returns true if successfully sent
 281:Drivers/Radio/Src/MY_NRF24.c **** bool NRF24_write(const void *buf, uint8_t len) {
 282:Drivers/Radio/Src/MY_NRF24.c ****     bool retStatus;
 283:Drivers/Radio/Src/MY_NRF24.c ****     // Start writing
 284:Drivers/Radio/Src/MY_NRF24.c ****     NRF24_resetStatus();
 285:Drivers/Radio/Src/MY_NRF24.c ****     NRF24_startWrite(buf, len);
 286:Drivers/Radio/Src/MY_NRF24.c ****     // Data monitor
 287:Drivers/Radio/Src/MY_NRF24.c ****     uint8_t observe_tx;
 288:Drivers/Radio/Src/MY_NRF24.c ****     uint8_t status;
 289:Drivers/Radio/Src/MY_NRF24.c ****     uint32_t sent_at = HAL_GetTick();
 290:Drivers/Radio/Src/MY_NRF24.c ****     const uint32_t timeout = 40;  // ms to wait for timeout
 291:Drivers/Radio/Src/MY_NRF24.c ****     do {
 292:Drivers/Radio/Src/MY_NRF24.c ****         NRF24_read_registerN(REG_OBSERVE_TX, &observe_tx, 1);
 293:Drivers/Radio/Src/MY_NRF24.c ****         printf("Retransmition:%d\r\n", observe_tx & 0x0F);
 294:Drivers/Radio/Src/MY_NRF24.c ****         printf("Total Lost:%d\r\n", (observe_tx & 0xF0) >> 4);
 295:Drivers/Radio/Src/MY_NRF24.c ****         // Get status register
 296:Drivers/Radio/Src/MY_NRF24.c ****         status = NRF24_get_status();
 297:Drivers/Radio/Src/MY_NRF24.c ****     } while ((!(status & (_BV(BIT_TX_DS) | _BV(BIT_MAX_RT)))) &&
 298:Drivers/Radio/Src/MY_NRF24.c ****              (HAL_GetTick() - sent_at < timeout));
 299:Drivers/Radio/Src/MY_NRF24.c **** 
 300:Drivers/Radio/Src/MY_NRF24.c ****     //	printConfigReg();
 301:Drivers/Radio/Src/MY_NRF24.c ****     //	printStatusReg();
 302:Drivers/Radio/Src/MY_NRF24.c **** 
 303:Drivers/Radio/Src/MY_NRF24.c ****     bool tx_ok, tx_fail;
 304:Drivers/Radio/Src/MY_NRF24.c ****     NRF24_whatHappened(&tx_ok, &tx_fail, &ack_payload_available);
 305:Drivers/Radio/Src/MY_NRF24.c ****     retStatus = tx_ok;
 306:Drivers/Radio/Src/MY_NRF24.c ****     if (ack_payload_available) {
 307:Drivers/Radio/Src/MY_NRF24.c ****         ack_payload_length = NRF24_getDynamicPayloadSize();
 308:Drivers/Radio/Src/MY_NRF24.c ****     }
 309:Drivers/Radio/Src/MY_NRF24.c **** 
ARM GAS  C:\Users\sangt\AppData\Local\Temp\cc6s9Yz8.s 			page 19


 310:Drivers/Radio/Src/MY_NRF24.c ****     // Power down
 311:Drivers/Radio/Src/MY_NRF24.c ****     NRF24_ce(0);
 312:Drivers/Radio/Src/MY_NRF24.c ****     NRF24_available();
 313:Drivers/Radio/Src/MY_NRF24.c ****     NRF24_flush_tx();
 314:Drivers/Radio/Src/MY_NRF24.c ****     return retStatus;
 315:Drivers/Radio/Src/MY_NRF24.c **** }
 316:Drivers/Radio/Src/MY_NRF24.c **** // 16. Check for available data to read
 317:Drivers/Radio/Src/MY_NRF24.c **** bool NRF24_available(void) { return NRF24_availablePipe(NULL); }
 318:Drivers/Radio/Src/MY_NRF24.c **** // 17. Read received data
 319:Drivers/Radio/Src/MY_NRF24.c **** bool NRF24_read(void *buf, uint8_t len) {
 320:Drivers/Radio/Src/MY_NRF24.c ****     NRF24_read_payload(buf, len);
 321:Drivers/Radio/Src/MY_NRF24.c ****     uint8_t rxStatus = NRF24_read_register(REG_FIFO_STATUS) & _BV(BIT_RX_EMPTY);
 322:Drivers/Radio/Src/MY_NRF24.c ****     NRF24_flush_rx();
 323:Drivers/Radio/Src/MY_NRF24.c ****     NRF24_getDynamicPayloadSize();
 324:Drivers/Radio/Src/MY_NRF24.c ****     return rxStatus;
 325:Drivers/Radio/Src/MY_NRF24.c **** }
 326:Drivers/Radio/Src/MY_NRF24.c **** // 18. Open Tx pipe for writing (Cannot perform this while Listenning, has to
 327:Drivers/Radio/Src/MY_NRF24.c **** // call NRF24_stopListening)
 328:Drivers/Radio/Src/MY_NRF24.c **** void NRF24_openWritingPipe(uint64_t address) {
 736              		.loc 1 328 46 is_stmt 1 view -0
 737              		.cfi_startproc
 738              		@ args = 0, pretend = 0, frame = 8
 739              		@ frame_needed = 0, uses_anonymous_args = 0
 740              		.loc 1 328 46 is_stmt 0 view .LVU128
 741 0000 00B5     		push	{lr}
 742              	.LCFI22:
 743              		.cfi_def_cfa_offset 4
 744              		.cfi_offset 14, -4
 745 0002 83B0     		sub	sp, sp, #12
 746              	.LCFI23:
 747              		.cfi_def_cfa_offset 16
 748 0004 CDE90001 		strd	r0, [sp]
 329:Drivers/Radio/Src/MY_NRF24.c ****     NRF24_write_registerN(REG_RX_ADDR_P0, (uint8_t *)(&address), 5);
 749              		.loc 1 329 5 is_stmt 1 view .LVU129
 750 0008 0522     		movs	r2, #5
 751 000a 6946     		mov	r1, sp
 752 000c 0A20     		movs	r0, #10
 753              	.LVL62:
 754              		.loc 1 329 5 is_stmt 0 view .LVU130
 755 000e FFF7FEFF 		bl	NRF24_write_registerN
 756              	.LVL63:
 330:Drivers/Radio/Src/MY_NRF24.c ****     NRF24_write_registerN(REG_TX_ADDR, (uint8_t *)(&address), 5);
 757              		.loc 1 330 5 is_stmt 1 view .LVU131
 758 0012 0522     		movs	r2, #5
 759 0014 6946     		mov	r1, sp
 760 0016 1020     		movs	r0, #16
 761 0018 FFF7FEFF 		bl	NRF24_write_registerN
 762              	.LVL64:
 331:Drivers/Radio/Src/MY_NRF24.c **** 
 332:Drivers/Radio/Src/MY_NRF24.c ****     const uint8_t max_payload_size = 32;
 763              		.loc 1 332 5 view .LVU132
 333:Drivers/Radio/Src/MY_NRF24.c ****     NRF24_write_register(REG_RX_PW_P0, MIN(payload_size, max_payload_size));
 764              		.loc 1 333 5 view .LVU133
 765 001c 054B     		ldr	r3, .L53
 766 001e 1978     		ldrb	r1, [r3]	@ zero_extendqisi2
 767 0020 2029     		cmp	r1, #32
 768 0022 28BF     		it	cs
ARM GAS  C:\Users\sangt\AppData\Local\Temp\cc6s9Yz8.s 			page 20


 769 0024 2021     		movcs	r1, #32
 770 0026 1120     		movs	r0, #17
 771 0028 FFF7FEFF 		bl	NRF24_write_register
 772              	.LVL65:
 334:Drivers/Radio/Src/MY_NRF24.c **** }
 773              		.loc 1 334 1 is_stmt 0 view .LVU134
 774 002c 03B0     		add	sp, sp, #12
 775              	.LCFI24:
 776              		.cfi_def_cfa_offset 4
 777              		@ sp needed
 778 002e 5DF804FB 		ldr	pc, [sp], #4
 779              	.L54:
 780 0032 00BF     		.align	2
 781              	.L53:
 782 0034 00000000 		.word	.LANCHOR5
 783              		.cfi_endproc
 784              	.LFE93:
 786              		.section	.text.NRF24_openReadingPipe,"ax",%progbits
 787              		.align	1
 788              		.global	NRF24_openReadingPipe
 789              		.syntax unified
 790              		.thumb
 791              		.thumb_func
 793              	NRF24_openReadingPipe:
 794              	.LVL66:
 795              	.LFB94:
 335:Drivers/Radio/Src/MY_NRF24.c **** // 19. Open reading pipe
 336:Drivers/Radio/Src/MY_NRF24.c **** void NRF24_openReadingPipe(uint8_t number, uint64_t address) {
 796              		.loc 1 336 62 is_stmt 1 view -0
 797              		.cfi_startproc
 798              		@ args = 0, pretend = 0, frame = 8
 799              		@ frame_needed = 0, uses_anonymous_args = 0
 800              		.loc 1 336 62 is_stmt 0 view .LVU136
 801 0000 10B5     		push	{r4, lr}
 802              	.LCFI25:
 803              		.cfi_def_cfa_offset 8
 804              		.cfi_offset 4, -8
 805              		.cfi_offset 14, -4
 806 0002 82B0     		sub	sp, sp, #8
 807              	.LCFI26:
 808              		.cfi_def_cfa_offset 16
 809 0004 CDE90023 		strd	r2, [sp]
 337:Drivers/Radio/Src/MY_NRF24.c ****     if (number == 0) pipe0_reading_address = address;
 810              		.loc 1 337 5 is_stmt 1 view .LVU137
 811              		.loc 1 337 8 is_stmt 0 view .LVU138
 812 0008 0446     		mov	r4, r0
 813 000a 20B9     		cbnz	r0, .L56
 814              		.loc 1 337 22 is_stmt 1 discriminator 1 view .LVU139
 815              		.loc 1 337 44 is_stmt 0 discriminator 1 view .LVU140
 816 000c 144B     		ldr	r3, .L62
 817 000e DDE90001 		ldrd	r0, [sp]
 818              	.LVL67:
 819              		.loc 1 337 44 discriminator 1 view .LVU141
 820 0012 C3E90001 		strd	r0, [r3]
 821              	.L56:
 338:Drivers/Radio/Src/MY_NRF24.c **** 
 339:Drivers/Radio/Src/MY_NRF24.c ****     if (number <= 6) {
ARM GAS  C:\Users\sangt\AppData\Local\Temp\cc6s9Yz8.s 			page 21


 822              		.loc 1 339 5 is_stmt 1 view .LVU142
 823              		.loc 1 339 8 is_stmt 0 view .LVU143
 824 0016 062C     		cmp	r4, #6
 825 0018 19D8     		bhi	.L55
 340:Drivers/Radio/Src/MY_NRF24.c ****         if (number < 2) {
 826              		.loc 1 340 9 is_stmt 1 view .LVU144
 827              		.loc 1 340 12 is_stmt 0 view .LVU145
 828 001a 012C     		cmp	r4, #1
 829 001c 19D9     		bls	.L61
 341:Drivers/Radio/Src/MY_NRF24.c ****             // Address width is 5 bytes
 342:Drivers/Radio/Src/MY_NRF24.c ****             NRF24_write_registerN(NRF24_ADDR_REGS[number],
 343:Drivers/Radio/Src/MY_NRF24.c ****                                   (uint8_t *)(&address), 5);
 344:Drivers/Radio/Src/MY_NRF24.c ****         } else {
 345:Drivers/Radio/Src/MY_NRF24.c ****             NRF24_write_registerN(NRF24_ADDR_REGS[number],
 830              		.loc 1 345 13 is_stmt 1 view .LVU146
 831 001e 0122     		movs	r2, #1
 832              	.LVL68:
 833              		.loc 1 345 13 is_stmt 0 view .LVU147
 834 0020 6946     		mov	r1, sp
 835 0022 104B     		ldr	r3, .L62+4
 836 0024 185D     		ldrb	r0, [r3, r4]	@ zero_extendqisi2
 837 0026 FFF7FEFF 		bl	NRF24_write_registerN
 838              	.LVL69:
 839              	.L59:
 346:Drivers/Radio/Src/MY_NRF24.c ****                                   (uint8_t *)(&address), 1);
 347:Drivers/Radio/Src/MY_NRF24.c ****         }
 348:Drivers/Radio/Src/MY_NRF24.c ****         // Write payload size
 349:Drivers/Radio/Src/MY_NRF24.c ****         NRF24_write_register(RF24_RX_PW_PIPE[number], payload_size);
 840              		.loc 1 349 9 is_stmt 1 view .LVU148
 841 002a 0F4B     		ldr	r3, .L62+8
 842 002c 1978     		ldrb	r1, [r3]	@ zero_extendqisi2
 843 002e 0F4B     		ldr	r3, .L62+12
 844 0030 185D     		ldrb	r0, [r3, r4]	@ zero_extendqisi2
 845 0032 FFF7FEFF 		bl	NRF24_write_register
 846              	.LVL70:
 350:Drivers/Radio/Src/MY_NRF24.c ****         // Enable pipe
 351:Drivers/Radio/Src/MY_NRF24.c ****         NRF24_write_register(REG_EN_RXADDR,
 847              		.loc 1 351 9 view .LVU149
 352:Drivers/Radio/Src/MY_NRF24.c ****                              NRF24_read_register(REG_EN_RXADDR) | _BV(number));
 848              		.loc 1 352 30 is_stmt 0 view .LVU150
 849 0036 0220     		movs	r0, #2
 850 0038 FFF7FEFF 		bl	NRF24_read_register
 851              	.LVL71:
 852 003c 41B2     		sxtb	r1, r0
 853              		.loc 1 352 67 view .LVU151
 854 003e 0120     		movs	r0, #1
 855 0040 00FA04F4 		lsl	r4, r0, r4
 856              		.loc 1 352 65 view .LVU152
 857 0044 2143     		orrs	r1, r1, r4
 351:Drivers/Radio/Src/MY_NRF24.c ****                              NRF24_read_register(REG_EN_RXADDR) | _BV(number));
 858              		.loc 1 351 9 view .LVU153
 859 0046 C9B2     		uxtb	r1, r1
 860 0048 0220     		movs	r0, #2
 861 004a FFF7FEFF 		bl	NRF24_write_register
 862              	.LVL72:
 863              	.L55:
 353:Drivers/Radio/Src/MY_NRF24.c ****     }
ARM GAS  C:\Users\sangt\AppData\Local\Temp\cc6s9Yz8.s 			page 22


 354:Drivers/Radio/Src/MY_NRF24.c **** }
 864              		.loc 1 354 1 view .LVU154
 865 004e 02B0     		add	sp, sp, #8
 866              	.LCFI27:
 867              		.cfi_remember_state
 868              		.cfi_def_cfa_offset 8
 869              		@ sp needed
 870 0050 10BD     		pop	{r4, pc}
 871              	.LVL73:
 872              	.L61:
 873              	.LCFI28:
 874              		.cfi_restore_state
 342:Drivers/Radio/Src/MY_NRF24.c ****                                   (uint8_t *)(&address), 5);
 875              		.loc 1 342 13 is_stmt 1 view .LVU155
 876 0052 0522     		movs	r2, #5
 877              	.LVL74:
 342:Drivers/Radio/Src/MY_NRF24.c ****                                   (uint8_t *)(&address), 5);
 878              		.loc 1 342 13 is_stmt 0 view .LVU156
 879 0054 6946     		mov	r1, sp
 880 0056 034B     		ldr	r3, .L62+4
 881 0058 185D     		ldrb	r0, [r3, r4]	@ zero_extendqisi2
 882 005a FFF7FEFF 		bl	NRF24_write_registerN
 883              	.LVL75:
 342:Drivers/Radio/Src/MY_NRF24.c ****                                   (uint8_t *)(&address), 5);
 884              		.loc 1 342 13 view .LVU157
 885 005e E4E7     		b	.L59
 886              	.L63:
 887              		.align	2
 888              	.L62:
 889 0060 00000000 		.word	.LANCHOR4
 890 0064 00000000 		.word	.LANCHOR6
 891 0068 00000000 		.word	.LANCHOR5
 892 006c 00000000 		.word	.LANCHOR7
 893              		.cfi_endproc
 894              	.LFE94:
 896              		.section	.text.NRF24_setRetries,"ax",%progbits
 897              		.align	1
 898              		.global	NRF24_setRetries
 899              		.syntax unified
 900              		.thumb
 901              		.thumb_func
 903              	NRF24_setRetries:
 904              	.LVL76:
 905              	.LFB95:
 355:Drivers/Radio/Src/MY_NRF24.c **** // 20 set transmit retries (rf24_Retries_e) and delay
 356:Drivers/Radio/Src/MY_NRF24.c **** void NRF24_setRetries(uint8_t delay, uint8_t count) {
 906              		.loc 1 356 53 is_stmt 1 view -0
 907              		.cfi_startproc
 908              		@ args = 0, pretend = 0, frame = 0
 909              		@ frame_needed = 0, uses_anonymous_args = 0
 910              		.loc 1 356 53 is_stmt 0 view .LVU159
 911 0000 08B5     		push	{r3, lr}
 912              	.LCFI29:
 913              		.cfi_def_cfa_offset 8
 914              		.cfi_offset 3, -8
 915              		.cfi_offset 14, -4
 357:Drivers/Radio/Src/MY_NRF24.c ****     NRF24_write_register(REG_SETUP_RETR,
ARM GAS  C:\Users\sangt\AppData\Local\Temp\cc6s9Yz8.s 			page 23


 916              		.loc 1 357 5 is_stmt 1 view .LVU160
 358:Drivers/Radio/Src/MY_NRF24.c ****                          (delay & 0xf) << BIT_ARD | (count & 0xf) << BIT_ARC);
 917              		.loc 1 358 67 is_stmt 0 view .LVU161
 918 0002 01F00F01 		and	r1, r1, #15
 919              	.LVL77:
 920              		.loc 1 358 51 view .LVU162
 921 0006 41EA0011 		orr	r1, r1, r0, lsl #4
 357:Drivers/Radio/Src/MY_NRF24.c ****     NRF24_write_register(REG_SETUP_RETR,
 922              		.loc 1 357 5 view .LVU163
 923 000a C9B2     		uxtb	r1, r1
 924 000c 0420     		movs	r0, #4
 925              	.LVL78:
 357:Drivers/Radio/Src/MY_NRF24.c ****     NRF24_write_register(REG_SETUP_RETR,
 926              		.loc 1 357 5 view .LVU164
 927 000e FFF7FEFF 		bl	NRF24_write_register
 928              	.LVL79:
 359:Drivers/Radio/Src/MY_NRF24.c **** }
 929              		.loc 1 359 1 view .LVU165
 930 0012 08BD     		pop	{r3, pc}
 931              		.cfi_endproc
 932              	.LFE95:
 934              		.section	.text.NRF24_setChannel,"ax",%progbits
 935              		.align	1
 936              		.global	NRF24_setChannel
 937              		.syntax unified
 938              		.thumb
 939              		.thumb_func
 941              	NRF24_setChannel:
 942              	.LVL80:
 943              	.LFB96:
 360:Drivers/Radio/Src/MY_NRF24.c **** 
 361:Drivers/Radio/Src/MY_NRF24.c **** // 21. Set RF channel frequency
 362:Drivers/Radio/Src/MY_NRF24.c **** void NRF24_setChannel(uint8_t channel) {
 944              		.loc 1 362 40 is_stmt 1 view -0
 945              		.cfi_startproc
 946              		@ args = 0, pretend = 0, frame = 0
 947              		@ frame_needed = 0, uses_anonymous_args = 0
 948              		.loc 1 362 40 is_stmt 0 view .LVU167
 949 0000 08B5     		push	{r3, lr}
 950              	.LCFI30:
 951              		.cfi_def_cfa_offset 8
 952              		.cfi_offset 3, -8
 953              		.cfi_offset 14, -4
 363:Drivers/Radio/Src/MY_NRF24.c ****     const uint8_t max_channel = 127;
 954              		.loc 1 363 5 is_stmt 1 view .LVU168
 955              	.LVL81:
 364:Drivers/Radio/Src/MY_NRF24.c ****     NRF24_write_register(REG_RF_CH, MIN(channel, max_channel));
 956              		.loc 1 364 5 view .LVU169
 957 0002 0146     		mov	r1, r0
 958 0004 7F28     		cmp	r0, #127
 959 0006 28BF     		it	cs
 960 0008 7F21     		movcs	r1, #127
 961 000a 0520     		movs	r0, #5
 962              	.LVL82:
 963              		.loc 1 364 5 is_stmt 0 view .LVU170
 964 000c FFF7FEFF 		bl	NRF24_write_register
 965              	.LVL83:
ARM GAS  C:\Users\sangt\AppData\Local\Temp\cc6s9Yz8.s 			page 24


 365:Drivers/Radio/Src/MY_NRF24.c **** }
 966              		.loc 1 365 1 view .LVU171
 967 0010 08BD     		pop	{r3, pc}
 968              		.cfi_endproc
 969              	.LFE96:
 971              		.section	.text.NRF24_setPayloadSize,"ax",%progbits
 972              		.align	1
 973              		.global	NRF24_setPayloadSize
 974              		.syntax unified
 975              		.thumb
 976              		.thumb_func
 978              	NRF24_setPayloadSize:
 979              	.LVL84:
 980              	.LFB97:
 366:Drivers/Radio/Src/MY_NRF24.c **** // 22. Set payload size
 367:Drivers/Radio/Src/MY_NRF24.c **** void NRF24_setPayloadSize(uint8_t size) {
 981              		.loc 1 367 41 is_stmt 1 view -0
 982              		.cfi_startproc
 983              		@ args = 0, pretend = 0, frame = 0
 984              		@ frame_needed = 0, uses_anonymous_args = 0
 985              		@ link register save eliminated.
 368:Drivers/Radio/Src/MY_NRF24.c ****     const uint8_t max_payload_size = 32;
 986              		.loc 1 368 5 view .LVU173
 369:Drivers/Radio/Src/MY_NRF24.c ****     payload_size = MIN(size, max_payload_size);
 987              		.loc 1 369 5 view .LVU174
 988              		.loc 1 369 20 is_stmt 0 view .LVU175
 989 0000 2028     		cmp	r0, #32
 990 0002 28BF     		it	cs
 991 0004 2020     		movcs	r0, #32
 992              	.LVL85:
 993              		.loc 1 369 18 view .LVU176
 994 0006 014B     		ldr	r3, .L69
 995 0008 1870     		strb	r0, [r3]
 370:Drivers/Radio/Src/MY_NRF24.c **** }
 996              		.loc 1 370 1 view .LVU177
 997 000a 7047     		bx	lr
 998              	.L70:
 999              		.align	2
 1000              	.L69:
 1001 000c 00000000 		.word	.LANCHOR5
 1002              		.cfi_endproc
 1003              	.LFE97:
 1005              		.section	.text.NRF24_getPayloadSize,"ax",%progbits
 1006              		.align	1
 1007              		.global	NRF24_getPayloadSize
 1008              		.syntax unified
 1009              		.thumb
 1010              		.thumb_func
 1012              	NRF24_getPayloadSize:
 1013              	.LFB98:
 371:Drivers/Radio/Src/MY_NRF24.c **** // 23. Get payload size
 372:Drivers/Radio/Src/MY_NRF24.c **** uint8_t NRF24_getPayloadSize(void) { return payload_size; }
 1014              		.loc 1 372 36 is_stmt 1 view -0
 1015              		.cfi_startproc
 1016              		@ args = 0, pretend = 0, frame = 0
 1017              		@ frame_needed = 0, uses_anonymous_args = 0
 1018              		@ link register save eliminated.
ARM GAS  C:\Users\sangt\AppData\Local\Temp\cc6s9Yz8.s 			page 25


 1019              		.loc 1 372 38 view .LVU179
 1020              		.loc 1 372 59 is_stmt 0 view .LVU180
 1021 0000 014B     		ldr	r3, .L72
 1022 0002 1878     		ldrb	r0, [r3]	@ zero_extendqisi2
 1023 0004 7047     		bx	lr
 1024              	.L73:
 1025 0006 00BF     		.align	2
 1026              	.L72:
 1027 0008 00000000 		.word	.LANCHOR5
 1028              		.cfi_endproc
 1029              	.LFE98:
 1031              		.section	.text.NRF24_read_payload,"ax",%progbits
 1032              		.align	1
 1033              		.global	NRF24_read_payload
 1034              		.syntax unified
 1035              		.thumb
 1036              		.thumb_func
 1038              	NRF24_read_payload:
 1039              	.LVL86:
 1040              	.LFB83:
 147:Drivers/Radio/Src/MY_NRF24.c ****     uint8_t cmdRxBuf;
 1041              		.loc 1 147 49 is_stmt 1 view -0
 1042              		.cfi_startproc
 1043              		@ args = 0, pretend = 0, frame = 8
 1044              		@ frame_needed = 0, uses_anonymous_args = 0
 147:Drivers/Radio/Src/MY_NRF24.c ****     uint8_t cmdRxBuf;
 1045              		.loc 1 147 49 is_stmt 0 view .LVU182
 1046 0000 70B5     		push	{r4, r5, r6, lr}
 1047              	.LCFI31:
 1048              		.cfi_def_cfa_offset 16
 1049              		.cfi_offset 4, -16
 1050              		.cfi_offset 5, -12
 1051              		.cfi_offset 6, -8
 1052              		.cfi_offset 14, -4
 1053 0002 82B0     		sub	sp, sp, #8
 1054              	.LCFI32:
 1055              		.cfi_def_cfa_offset 24
 1056 0004 0646     		mov	r6, r0
 1057 0006 0D46     		mov	r5, r1
 148:Drivers/Radio/Src/MY_NRF24.c ****     // Get data length using payload size
 1058              		.loc 1 148 5 is_stmt 1 view .LVU183
 150:Drivers/Radio/Src/MY_NRF24.c ****     // Read data from Rx payload buffer
 1059              		.loc 1 150 5 view .LVU184
 150:Drivers/Radio/Src/MY_NRF24.c ****     // Read data from Rx payload buffer
 1060              		.loc 1 150 24 is_stmt 0 view .LVU185
 1061 0008 FFF7FEFF 		bl	NRF24_getPayloadSize
 1062              	.LVL87:
 150:Drivers/Radio/Src/MY_NRF24.c ****     // Read data from Rx payload buffer
 1063              		.loc 1 150 24 view .LVU186
 1064 000c 0446     		mov	r4, r0
 150:Drivers/Radio/Src/MY_NRF24.c ****     // Read data from Rx payload buffer
 1065              		.loc 1 150 13 view .LVU187
 1066 000e A842     		cmp	r0, r5
 1067 0010 00D9     		bls	.L75
 1068 0012 2C46     		mov	r4, r5
 1069              	.L75:
 1070              	.LVL88:
ARM GAS  C:\Users\sangt\AppData\Local\Temp\cc6s9Yz8.s 			page 26


 152:Drivers/Radio/Src/MY_NRF24.c ****     cmdRxBuf = CMD_R_RX_PAYLOAD;
 1071              		.loc 1 152 5 is_stmt 1 discriminator 4 view .LVU188
 1072 0014 0020     		movs	r0, #0
 1073 0016 FFF7FEFF 		bl	NRF24_csn
 1074              	.LVL89:
 153:Drivers/Radio/Src/MY_NRF24.c ****     HAL_SPI_Transmit(&nrf24_hspi, &cmdRxBuf, 1, 100);
 1075              		.loc 1 153 5 discriminator 4 view .LVU189
 153:Drivers/Radio/Src/MY_NRF24.c ****     HAL_SPI_Transmit(&nrf24_hspi, &cmdRxBuf, 1, 100);
 1076              		.loc 1 153 14 is_stmt 0 discriminator 4 view .LVU190
 1077 001a 6123     		movs	r3, #97
 1078 001c 8DF80730 		strb	r3, [sp, #7]
 154:Drivers/Radio/Src/MY_NRF24.c ****     HAL_SPI_Receive(&nrf24_hspi, buf, data_len, 100);
 1079              		.loc 1 154 5 is_stmt 1 discriminator 4 view .LVU191
 1080 0020 094D     		ldr	r5, .L77
 1081 0022 6423     		movs	r3, #100
 1082 0024 0122     		movs	r2, #1
 1083 0026 0DF10701 		add	r1, sp, #7
 1084 002a 2846     		mov	r0, r5
 1085 002c FFF7FEFF 		bl	HAL_SPI_Transmit
 1086              	.LVL90:
 155:Drivers/Radio/Src/MY_NRF24.c ****     NRF24_csn(1);
 1087              		.loc 1 155 5 discriminator 4 view .LVU192
 1088 0030 6423     		movs	r3, #100
 1089 0032 A2B2     		uxth	r2, r4
 1090 0034 3146     		mov	r1, r6
 1091 0036 2846     		mov	r0, r5
 1092 0038 FFF7FEFF 		bl	HAL_SPI_Receive
 1093              	.LVL91:
 156:Drivers/Radio/Src/MY_NRF24.c **** }
 1094              		.loc 1 156 5 discriminator 4 view .LVU193
 1095 003c 0120     		movs	r0, #1
 1096 003e FFF7FEFF 		bl	NRF24_csn
 1097              	.LVL92:
 157:Drivers/Radio/Src/MY_NRF24.c **** 
 1098              		.loc 1 157 1 is_stmt 0 discriminator 4 view .LVU194
 1099 0042 02B0     		add	sp, sp, #8
 1100              	.LCFI33:
 1101              		.cfi_def_cfa_offset 16
 1102              		@ sp needed
 1103 0044 70BD     		pop	{r4, r5, r6, pc}
 1104              	.LVL93:
 1105              	.L78:
 157:Drivers/Radio/Src/MY_NRF24.c **** 
 1106              		.loc 1 157 1 discriminator 4 view .LVU195
 1107 0046 00BF     		.align	2
 1108              	.L77:
 1109 0048 00000000 		.word	.LANCHOR3
 1110              		.cfi_endproc
 1111              	.LFE83:
 1113              		.section	.text.NRF24_getDynamicPayloadSize,"ax",%progbits
 1114              		.align	1
 1115              		.global	NRF24_getDynamicPayloadSize
 1116              		.syntax unified
 1117              		.thumb
 1118              		.thumb_func
 1120              	NRF24_getDynamicPayloadSize:
 1121              	.LFB99:
ARM GAS  C:\Users\sangt\AppData\Local\Temp\cc6s9Yz8.s 			page 27


 373:Drivers/Radio/Src/MY_NRF24.c **** // 24. Get dynamic payload size, of latest packet received
 374:Drivers/Radio/Src/MY_NRF24.c **** uint8_t NRF24_getDynamicPayloadSize(void) {
 1122              		.loc 1 374 43 is_stmt 1 view -0
 1123              		.cfi_startproc
 1124              		@ args = 0, pretend = 0, frame = 0
 1125              		@ frame_needed = 0, uses_anonymous_args = 0
 1126 0000 08B5     		push	{r3, lr}
 1127              	.LCFI34:
 1128              		.cfi_def_cfa_offset 8
 1129              		.cfi_offset 3, -8
 1130              		.cfi_offset 14, -4
 375:Drivers/Radio/Src/MY_NRF24.c ****     return NRF24_read_register(CMD_R_RX_PL_WID);
 1131              		.loc 1 375 5 view .LVU197
 1132              		.loc 1 375 12 is_stmt 0 view .LVU198
 1133 0002 6020     		movs	r0, #96
 1134 0004 FFF7FEFF 		bl	NRF24_read_register
 1135              	.LVL94:
 376:Drivers/Radio/Src/MY_NRF24.c **** }
 1136              		.loc 1 376 1 view .LVU199
 1137 0008 08BD     		pop	{r3, pc}
 1138              		.cfi_endproc
 1139              	.LFE99:
 1141              		.section	.text.NRF24_read,"ax",%progbits
 1142              		.align	1
 1143              		.global	NRF24_read
 1144              		.syntax unified
 1145              		.thumb
 1146              		.thumb_func
 1148              	NRF24_read:
 1149              	.LVL95:
 1150              	.LFB92:
 319:Drivers/Radio/Src/MY_NRF24.c ****     NRF24_read_payload(buf, len);
 1151              		.loc 1 319 41 is_stmt 1 view -0
 1152              		.cfi_startproc
 1153              		@ args = 0, pretend = 0, frame = 0
 1154              		@ frame_needed = 0, uses_anonymous_args = 0
 319:Drivers/Radio/Src/MY_NRF24.c ****     NRF24_read_payload(buf, len);
 1155              		.loc 1 319 41 is_stmt 0 view .LVU201
 1156 0000 10B5     		push	{r4, lr}
 1157              	.LCFI35:
 1158              		.cfi_def_cfa_offset 8
 1159              		.cfi_offset 4, -8
 1160              		.cfi_offset 14, -4
 320:Drivers/Radio/Src/MY_NRF24.c ****     uint8_t rxStatus = NRF24_read_register(REG_FIFO_STATUS) & _BV(BIT_RX_EMPTY);
 1161              		.loc 1 320 5 is_stmt 1 view .LVU202
 1162 0002 FFF7FEFF 		bl	NRF24_read_payload
 1163              	.LVL96:
 321:Drivers/Radio/Src/MY_NRF24.c ****     NRF24_flush_rx();
 1164              		.loc 1 321 5 view .LVU203
 321:Drivers/Radio/Src/MY_NRF24.c ****     NRF24_flush_rx();
 1165              		.loc 1 321 24 is_stmt 0 view .LVU204
 1166 0006 1720     		movs	r0, #23
 1167 0008 FFF7FEFF 		bl	NRF24_read_register
 1168              	.LVL97:
 321:Drivers/Radio/Src/MY_NRF24.c ****     NRF24_flush_rx();
 1169              		.loc 1 321 13 view .LVU205
 1170 000c 00F00104 		and	r4, r0, #1
ARM GAS  C:\Users\sangt\AppData\Local\Temp\cc6s9Yz8.s 			page 28


 1171              	.LVL98:
 322:Drivers/Radio/Src/MY_NRF24.c ****     NRF24_getDynamicPayloadSize();
 1172              		.loc 1 322 5 is_stmt 1 view .LVU206
 1173 0010 FFF7FEFF 		bl	NRF24_flush_rx
 1174              	.LVL99:
 323:Drivers/Radio/Src/MY_NRF24.c ****     return rxStatus;
 1175              		.loc 1 323 5 view .LVU207
 1176 0014 FFF7FEFF 		bl	NRF24_getDynamicPayloadSize
 1177              	.LVL100:
 324:Drivers/Radio/Src/MY_NRF24.c **** }
 1178              		.loc 1 324 5 view .LVU208
 325:Drivers/Radio/Src/MY_NRF24.c **** // 18. Open Tx pipe for writing (Cannot perform this while Listenning, has to
 1179              		.loc 1 325 1 is_stmt 0 view .LVU209
 1180 0018 2046     		mov	r0, r4
 1181 001a 10BD     		pop	{r4, pc}
 325:Drivers/Radio/Src/MY_NRF24.c **** // 18. Open Tx pipe for writing (Cannot perform this while Listenning, has to
 1182              		.loc 1 325 1 view .LVU210
 1183              		.cfi_endproc
 1184              	.LFE92:
 1186              		.section	.text.NRF24_disableDynamicPayloads,"ax",%progbits
 1187              		.align	1
 1188              		.global	NRF24_disableDynamicPayloads
 1189              		.syntax unified
 1190              		.thumb
 1191              		.thumb_func
 1193              	NRF24_disableDynamicPayloads:
 1194              	.LFB102:
 377:Drivers/Radio/Src/MY_NRF24.c **** // 25. Enable payload on Ackknowledge packet
 378:Drivers/Radio/Src/MY_NRF24.c **** void NRF24_enableAckPayload(void) {
 379:Drivers/Radio/Src/MY_NRF24.c ****     // Need to enable dynamic payload and Ack payload together
 380:Drivers/Radio/Src/MY_NRF24.c ****     NRF24_write_register(REG_FEATURE, NRF24_read_register(REG_FEATURE) |
 381:Drivers/Radio/Src/MY_NRF24.c ****                                           _BV(BIT_EN_ACK_PAY) |
 382:Drivers/Radio/Src/MY_NRF24.c ****                                           _BV(BIT_EN_DPL));
 383:Drivers/Radio/Src/MY_NRF24.c ****     if (!NRF24_read_register(REG_FEATURE)) {
 384:Drivers/Radio/Src/MY_NRF24.c ****         NRF24_ACTIVATE_cmd();
 385:Drivers/Radio/Src/MY_NRF24.c ****         NRF24_write_register(REG_FEATURE, NRF24_read_register(REG_FEATURE) |
 386:Drivers/Radio/Src/MY_NRF24.c ****                                               _BV(BIT_EN_ACK_PAY) |
 387:Drivers/Radio/Src/MY_NRF24.c ****                                               _BV(BIT_EN_DPL));
 388:Drivers/Radio/Src/MY_NRF24.c ****     }
 389:Drivers/Radio/Src/MY_NRF24.c ****     // Enable dynamic payload on pipes 0 & 1
 390:Drivers/Radio/Src/MY_NRF24.c ****     NRF24_write_register(REG_DYNPD, NRF24_read_register(REG_DYNPD) |
 391:Drivers/Radio/Src/MY_NRF24.c ****                                         _BV(BIT_DPL_P1) | _BV(BIT_DPL_P0));
 392:Drivers/Radio/Src/MY_NRF24.c **** }
 393:Drivers/Radio/Src/MY_NRF24.c **** // 26. Enable dynamic payloads
 394:Drivers/Radio/Src/MY_NRF24.c **** void NRF24_enableDynamicPayloads(void) {
 395:Drivers/Radio/Src/MY_NRF24.c ****     // Enable dynamic payload through FEATURE register
 396:Drivers/Radio/Src/MY_NRF24.c ****     NRF24_write_register(REG_FEATURE,
 397:Drivers/Radio/Src/MY_NRF24.c ****                          NRF24_read_register(REG_FEATURE) | _BV(BIT_EN_DPL));
 398:Drivers/Radio/Src/MY_NRF24.c ****     if (!NRF24_read_register(REG_FEATURE)) {
 399:Drivers/Radio/Src/MY_NRF24.c ****         NRF24_ACTIVATE_cmd();
 400:Drivers/Radio/Src/MY_NRF24.c ****         NRF24_write_register(
 401:Drivers/Radio/Src/MY_NRF24.c ****             REG_FEATURE, NRF24_read_register(REG_FEATURE) | _BV(BIT_EN_DPL));
 402:Drivers/Radio/Src/MY_NRF24.c ****     }
 403:Drivers/Radio/Src/MY_NRF24.c ****     // Enable Dynamic payload on all pipes
 404:Drivers/Radio/Src/MY_NRF24.c ****     NRF24_write_register(REG_DYNPD, NRF24_read_register(REG_DYNPD) |
 405:Drivers/Radio/Src/MY_NRF24.c ****                                         _BV(BIT_DPL_P5) | _BV(BIT_DPL_P4) |
 406:Drivers/Radio/Src/MY_NRF24.c ****                                         _BV(BIT_DPL_P3) | _BV(BIT_DPL_P2) |
ARM GAS  C:\Users\sangt\AppData\Local\Temp\cc6s9Yz8.s 			page 29


 407:Drivers/Radio/Src/MY_NRF24.c ****                                         _BV(BIT_DPL_P1) | _BV(BIT_DPL_P0));
 408:Drivers/Radio/Src/MY_NRF24.c ****     dynamic_payloads_enabled = true;
 409:Drivers/Radio/Src/MY_NRF24.c **** }
 410:Drivers/Radio/Src/MY_NRF24.c **** void NRF24_disableDynamicPayloads(void) {
 1195              		.loc 1 410 41 is_stmt 1 view -0
 1196              		.cfi_startproc
 1197              		@ args = 0, pretend = 0, frame = 0
 1198              		@ frame_needed = 0, uses_anonymous_args = 0
 1199 0000 08B5     		push	{r3, lr}
 1200              	.LCFI36:
 1201              		.cfi_def_cfa_offset 8
 1202              		.cfi_offset 3, -8
 1203              		.cfi_offset 14, -4
 411:Drivers/Radio/Src/MY_NRF24.c ****     NRF24_write_register(REG_FEATURE,
 1204              		.loc 1 411 5 view .LVU212
 412:Drivers/Radio/Src/MY_NRF24.c ****                          NRF24_read_register(REG_FEATURE) & ~(_BV(BIT_EN_DPL)));
 1205              		.loc 1 412 26 is_stmt 0 view .LVU213
 1206 0002 1D20     		movs	r0, #29
 1207 0004 FFF7FEFF 		bl	NRF24_read_register
 1208              	.LVL101:
 411:Drivers/Radio/Src/MY_NRF24.c ****     NRF24_write_register(REG_FEATURE,
 1209              		.loc 1 411 5 view .LVU214
 1210 0008 00F0FB01 		and	r1, r0, #251
 1211 000c 1D20     		movs	r0, #29
 1212 000e FFF7FEFF 		bl	NRF24_write_register
 1213              	.LVL102:
 413:Drivers/Radio/Src/MY_NRF24.c ****     // Disable for all pipes
 414:Drivers/Radio/Src/MY_NRF24.c ****     NRF24_write_register(REG_DYNPD, 0);
 1214              		.loc 1 414 5 is_stmt 1 view .LVU215
 1215 0012 0021     		movs	r1, #0
 1216 0014 1C20     		movs	r0, #28
 1217 0016 FFF7FEFF 		bl	NRF24_write_register
 1218              	.LVL103:
 415:Drivers/Radio/Src/MY_NRF24.c ****     dynamic_payloads_enabled = false;
 1219              		.loc 1 415 5 view .LVU216
 1220              		.loc 1 415 30 is_stmt 0 view .LVU217
 1221 001a 024B     		ldr	r3, .L85
 1222 001c 0022     		movs	r2, #0
 1223 001e 1A70     		strb	r2, [r3]
 416:Drivers/Radio/Src/MY_NRF24.c **** }
 1224              		.loc 1 416 1 view .LVU218
 1225 0020 08BD     		pop	{r3, pc}
 1226              	.L86:
 1227 0022 00BF     		.align	2
 1228              	.L85:
 1229 0024 00000000 		.word	.LANCHOR8
 1230              		.cfi_endproc
 1231              	.LFE102:
 1233              		.section	.text.NRF24_isNRF_Plus,"ax",%progbits
 1234              		.align	1
 1235              		.global	NRF24_isNRF_Plus
 1236              		.syntax unified
 1237              		.thumb
 1238              		.thumb_func
 1240              	NRF24_isNRF_Plus:
 1241              	.LFB103:
 417:Drivers/Radio/Src/MY_NRF24.c **** // 27. Check if module is NRF24L01+ or normal module
ARM GAS  C:\Users\sangt\AppData\Local\Temp\cc6s9Yz8.s 			page 30


 418:Drivers/Radio/Src/MY_NRF24.c **** bool NRF24_isNRF_Plus(void) { return p_variant; }
 1242              		.loc 1 418 29 is_stmt 1 view -0
 1243              		.cfi_startproc
 1244              		@ args = 0, pretend = 0, frame = 0
 1245              		@ frame_needed = 0, uses_anonymous_args = 0
 1246              		@ link register save eliminated.
 1247              		.loc 1 418 31 view .LVU220
 1248              		.loc 1 418 49 is_stmt 0 view .LVU221
 1249 0000 0020     		movs	r0, #0
 1250 0002 7047     		bx	lr
 1251              		.cfi_endproc
 1252              	.LFE103:
 1254              		.section	.text.NRF24_setAutoAck,"ax",%progbits
 1255              		.align	1
 1256              		.global	NRF24_setAutoAck
 1257              		.syntax unified
 1258              		.thumb
 1259              		.thumb_func
 1261              	NRF24_setAutoAck:
 1262              	.LVL104:
 1263              	.LFB104:
 419:Drivers/Radio/Src/MY_NRF24.c **** // 28. Set Auto Ack for all
 420:Drivers/Radio/Src/MY_NRF24.c **** void NRF24_setAutoAck(bool enable) {
 1264              		.loc 1 420 36 is_stmt 1 view -0
 1265              		.cfi_startproc
 1266              		@ args = 0, pretend = 0, frame = 0
 1267              		@ frame_needed = 0, uses_anonymous_args = 0
 1268              		.loc 1 420 36 is_stmt 0 view .LVU223
 1269 0000 08B5     		push	{r3, lr}
 1270              	.LCFI37:
 1271              		.cfi_def_cfa_offset 8
 1272              		.cfi_offset 3, -8
 1273              		.cfi_offset 14, -4
 421:Drivers/Radio/Src/MY_NRF24.c ****     if (enable)
 1274              		.loc 1 421 5 is_stmt 1 view .LVU224
 1275              		.loc 1 421 8 is_stmt 0 view .LVU225
 1276 0002 20B1     		cbz	r0, .L89
 422:Drivers/Radio/Src/MY_NRF24.c ****         NRF24_write_register(REG_EN_AA, 0x3F);
 1277              		.loc 1 422 9 is_stmt 1 view .LVU226
 1278 0004 3F21     		movs	r1, #63
 1279 0006 0120     		movs	r0, #1
 1280              	.LVL105:
 1281              		.loc 1 422 9 is_stmt 0 view .LVU227
 1282 0008 FFF7FEFF 		bl	NRF24_write_register
 1283              	.LVL106:
 1284              	.L88:
 423:Drivers/Radio/Src/MY_NRF24.c ****     else
 424:Drivers/Radio/Src/MY_NRF24.c ****         NRF24_write_register(REG_EN_AA, 0x00);
 425:Drivers/Radio/Src/MY_NRF24.c **** }
 1285              		.loc 1 425 1 view .LVU228
 1286 000c 08BD     		pop	{r3, pc}
 1287              	.LVL107:
 1288              	.L89:
 424:Drivers/Radio/Src/MY_NRF24.c **** }
 1289              		.loc 1 424 9 is_stmt 1 view .LVU229
 1290 000e 0021     		movs	r1, #0
 1291 0010 0120     		movs	r0, #1
ARM GAS  C:\Users\sangt\AppData\Local\Temp\cc6s9Yz8.s 			page 31


 1292              	.LVL108:
 424:Drivers/Radio/Src/MY_NRF24.c **** }
 1293              		.loc 1 424 9 is_stmt 0 view .LVU230
 1294 0012 FFF7FEFF 		bl	NRF24_write_register
 1295              	.LVL109:
 1296              		.loc 1 425 1 view .LVU231
 1297 0016 F9E7     		b	.L88
 1298              		.cfi_endproc
 1299              	.LFE104:
 1301              		.section	.text.NRF24_setAutoAckPipe,"ax",%progbits
 1302              		.align	1
 1303              		.global	NRF24_setAutoAckPipe
 1304              		.syntax unified
 1305              		.thumb
 1306              		.thumb_func
 1308              	NRF24_setAutoAckPipe:
 1309              	.LVL110:
 1310              	.LFB105:
 426:Drivers/Radio/Src/MY_NRF24.c **** // 29. Set Auto Ack for certain pipe
 427:Drivers/Radio/Src/MY_NRF24.c **** void NRF24_setAutoAckPipe(uint8_t pipe, bool enable) {
 1311              		.loc 1 427 54 is_stmt 1 view -0
 1312              		.cfi_startproc
 1313              		@ args = 0, pretend = 0, frame = 0
 1314              		@ frame_needed = 0, uses_anonymous_args = 0
 428:Drivers/Radio/Src/MY_NRF24.c ****     if (pipe <= 6) {
 1315              		.loc 1 428 5 view .LVU233
 1316              		.loc 1 428 8 is_stmt 0 view .LVU234
 1317 0000 0628     		cmp	r0, #6
 1318 0002 00D9     		bls	.L100
 1319 0004 7047     		bx	lr
 1320              	.L100:
 427:Drivers/Radio/Src/MY_NRF24.c ****     if (pipe <= 6) {
 1321              		.loc 1 427 54 view .LVU235
 1322 0006 38B5     		push	{r3, r4, r5, lr}
 1323              	.LCFI38:
 1324              		.cfi_def_cfa_offset 16
 1325              		.cfi_offset 3, -16
 1326              		.cfi_offset 4, -12
 1327              		.cfi_offset 5, -8
 1328              		.cfi_offset 14, -4
 1329 0008 0446     		mov	r4, r0
 1330 000a 0D46     		mov	r5, r1
 1331              	.LBB2:
 429:Drivers/Radio/Src/MY_NRF24.c ****         uint8_t en_aa = NRF24_read_register(REG_EN_AA);
 1332              		.loc 1 429 9 is_stmt 1 view .LVU236
 1333              		.loc 1 429 25 is_stmt 0 view .LVU237
 1334 000c 0120     		movs	r0, #1
 1335              	.LVL111:
 1336              		.loc 1 429 25 view .LVU238
 1337 000e FFF7FEFF 		bl	NRF24_read_register
 1338              	.LVL112:
 430:Drivers/Radio/Src/MY_NRF24.c ****         if (enable) {
 1339              		.loc 1 430 9 is_stmt 1 view .LVU239
 1340              		.loc 1 430 12 is_stmt 0 view .LVU240
 1341 0012 3DB1     		cbz	r5, .L94
 431:Drivers/Radio/Src/MY_NRF24.c ****             en_aa |= _BV(pipe);
 1342              		.loc 1 431 13 is_stmt 1 view .LVU241
ARM GAS  C:\Users\sangt\AppData\Local\Temp\cc6s9Yz8.s 			page 32


 1343              		.loc 1 431 22 is_stmt 0 view .LVU242
 1344 0014 0121     		movs	r1, #1
 1345 0016 A140     		lsls	r1, r1, r4
 1346              		.loc 1 431 19 view .LVU243
 1347 0018 0143     		orrs	r1, r1, r0
 1348 001a C9B2     		uxtb	r1, r1
 1349              	.LVL113:
 1350              	.L95:
 432:Drivers/Radio/Src/MY_NRF24.c ****         } else {
 433:Drivers/Radio/Src/MY_NRF24.c ****             en_aa &= ~_BV(pipe);
 434:Drivers/Radio/Src/MY_NRF24.c ****         }
 435:Drivers/Radio/Src/MY_NRF24.c ****         NRF24_write_register(REG_EN_AA, en_aa);
 1351              		.loc 1 435 9 is_stmt 1 view .LVU244
 1352 001c 0120     		movs	r0, #1
 1353 001e FFF7FEFF 		bl	NRF24_write_register
 1354              	.LVL114:
 1355              		.loc 1 435 9 is_stmt 0 view .LVU245
 1356              	.LBE2:
 436:Drivers/Radio/Src/MY_NRF24.c ****     }
 437:Drivers/Radio/Src/MY_NRF24.c **** }
 1357              		.loc 1 437 1 view .LVU246
 1358 0022 38BD     		pop	{r3, r4, r5, pc}
 1359              	.LVL115:
 1360              	.L94:
 1361              	.LBB3:
 433:Drivers/Radio/Src/MY_NRF24.c ****         }
 1362              		.loc 1 433 13 is_stmt 1 view .LVU247
 433:Drivers/Radio/Src/MY_NRF24.c ****         }
 1363              		.loc 1 433 23 is_stmt 0 view .LVU248
 1364 0024 0121     		movs	r1, #1
 1365 0026 A140     		lsls	r1, r1, r4
 433:Drivers/Radio/Src/MY_NRF24.c ****         }
 1366              		.loc 1 433 19 view .LVU249
 1367 0028 20EA0101 		bic	r1, r0, r1
 1368 002c C9B2     		uxtb	r1, r1
 1369              	.LVL116:
 433:Drivers/Radio/Src/MY_NRF24.c ****         }
 1370              		.loc 1 433 19 view .LVU250
 1371 002e F5E7     		b	.L95
 1372              	.LBE3:
 1373              		.cfi_endproc
 1374              	.LFE105:
 1376              		.section	.text.NRF24_setPALevel,"ax",%progbits
 1377              		.align	1
 1378              		.global	NRF24_setPALevel
 1379              		.syntax unified
 1380              		.thumb
 1381              		.thumb_func
 1383              	NRF24_setPALevel:
 1384              	.LVL117:
 1385              	.LFB106:
 438:Drivers/Radio/Src/MY_NRF24.c **** // 30. Set transmit power level
 439:Drivers/Radio/Src/MY_NRF24.c **** void NRF24_setPALevel(rf24_pa_dbm_e level) {
 1386              		.loc 1 439 44 is_stmt 1 view -0
 1387              		.cfi_startproc
 1388              		@ args = 0, pretend = 0, frame = 0
 1389              		@ frame_needed = 0, uses_anonymous_args = 0
ARM GAS  C:\Users\sangt\AppData\Local\Temp\cc6s9Yz8.s 			page 33


 1390              		.loc 1 439 44 is_stmt 0 view .LVU252
 1391 0000 10B5     		push	{r4, lr}
 1392              	.LCFI39:
 1393              		.cfi_def_cfa_offset 8
 1394              		.cfi_offset 4, -8
 1395              		.cfi_offset 14, -4
 1396 0002 0446     		mov	r4, r0
 440:Drivers/Radio/Src/MY_NRF24.c ****     uint8_t setup = NRF24_read_register(REG_RF_SETUP);
 1397              		.loc 1 440 5 is_stmt 1 view .LVU253
 1398              		.loc 1 440 21 is_stmt 0 view .LVU254
 1399 0004 0620     		movs	r0, #6
 1400              	.LVL118:
 1401              		.loc 1 440 21 view .LVU255
 1402 0006 FFF7FEFF 		bl	NRF24_read_register
 1403              	.LVL119:
 441:Drivers/Radio/Src/MY_NRF24.c ****     setup &= ~(_BV(RF_PWR_LOW) | _BV(RF_PWR_HIGH));
 1404              		.loc 1 441 5 is_stmt 1 view .LVU256
 1405              		.loc 1 441 11 is_stmt 0 view .LVU257
 1406 000a 00F0F901 		and	r1, r0, #249
 1407              	.LVL120:
 442:Drivers/Radio/Src/MY_NRF24.c **** 
 443:Drivers/Radio/Src/MY_NRF24.c ****     // switch uses RAM (evil!)
 444:Drivers/Radio/Src/MY_NRF24.c ****     if (level == RF24_PA_0dB) {
 1408              		.loc 1 444 5 is_stmt 1 view .LVU258
 1409              		.loc 1 444 8 is_stmt 0 view .LVU259
 1410 000e 032C     		cmp	r4, #3
 1411 0010 09D0     		beq	.L107
 445:Drivers/Radio/Src/MY_NRF24.c ****         setup |= (_BV(RF_PWR_LOW) | _BV(RF_PWR_HIGH));
 446:Drivers/Radio/Src/MY_NRF24.c ****     } else if (level == RF24_PA_m6dB) {
 1412              		.loc 1 446 12 is_stmt 1 view .LVU260
 1413              		.loc 1 446 15 is_stmt 0 view .LVU261
 1414 0012 022C     		cmp	r4, #2
 1415 0014 0DD0     		beq	.L108
 447:Drivers/Radio/Src/MY_NRF24.c ****         setup |= _BV(RF_PWR_HIGH);
 448:Drivers/Radio/Src/MY_NRF24.c ****     } else if (level == RF24_PA_m12dB) {
 1416              		.loc 1 448 12 is_stmt 1 view .LVU262
 1417              		.loc 1 448 15 is_stmt 0 view .LVU263
 1418 0016 012C     		cmp	r4, #1
 1419 0018 0ED0     		beq	.L109
 449:Drivers/Radio/Src/MY_NRF24.c ****         setup |= _BV(RF_PWR_LOW);
 450:Drivers/Radio/Src/MY_NRF24.c ****     } else if (level == RF24_PA_m18dB) {
 1420              		.loc 1 450 12 is_stmt 1 view .LVU264
 1421              		.loc 1 450 15 is_stmt 0 view .LVU265
 1422 001a 34B1     		cbz	r4, .L103
 451:Drivers/Radio/Src/MY_NRF24.c ****         // nothing
 452:Drivers/Radio/Src/MY_NRF24.c ****     } else if (level == RF24_PA_ERROR) {
 1423              		.loc 1 452 12 is_stmt 1 view .LVU266
 1424              		.loc 1 452 15 is_stmt 0 view .LVU267
 1425 001c 042C     		cmp	r4, #4
 1426 001e 04D1     		bne	.L103
 453:Drivers/Radio/Src/MY_NRF24.c ****         // On error, go to maximum PA
 454:Drivers/Radio/Src/MY_NRF24.c ****         setup |= (_BV(RF_PWR_LOW) | _BV(RF_PWR_HIGH));
 1427              		.loc 1 454 9 is_stmt 1 view .LVU268
 1428              		.loc 1 454 15 is_stmt 0 view .LVU269
 1429 0020 41F00601 		orr	r1, r1, #6
 1430              	.LVL121:
 1431              		.loc 1 454 15 view .LVU270
ARM GAS  C:\Users\sangt\AppData\Local\Temp\cc6s9Yz8.s 			page 34


 1432 0024 01E0     		b	.L103
 1433              	.L107:
 445:Drivers/Radio/Src/MY_NRF24.c ****     } else if (level == RF24_PA_m6dB) {
 1434              		.loc 1 445 9 is_stmt 1 view .LVU271
 445:Drivers/Radio/Src/MY_NRF24.c ****     } else if (level == RF24_PA_m6dB) {
 1435              		.loc 1 445 15 is_stmt 0 view .LVU272
 1436 0026 41F00601 		orr	r1, r1, #6
 1437              	.LVL122:
 1438              	.L103:
 455:Drivers/Radio/Src/MY_NRF24.c ****     }
 456:Drivers/Radio/Src/MY_NRF24.c **** 
 457:Drivers/Radio/Src/MY_NRF24.c ****     NRF24_write_register(REG_RF_SETUP, setup);
 1439              		.loc 1 457 5 is_stmt 1 view .LVU273
 1440 002a 0620     		movs	r0, #6
 1441 002c FFF7FEFF 		bl	NRF24_write_register
 1442              	.LVL123:
 458:Drivers/Radio/Src/MY_NRF24.c **** }
 1443              		.loc 1 458 1 is_stmt 0 view .LVU274
 1444 0030 10BD     		pop	{r4, pc}
 1445              	.LVL124:
 1446              	.L108:
 447:Drivers/Radio/Src/MY_NRF24.c ****     } else if (level == RF24_PA_m12dB) {
 1447              		.loc 1 447 9 is_stmt 1 view .LVU275
 447:Drivers/Radio/Src/MY_NRF24.c ****     } else if (level == RF24_PA_m12dB) {
 1448              		.loc 1 447 15 is_stmt 0 view .LVU276
 1449 0032 41F00401 		orr	r1, r1, #4
 1450              	.LVL125:
 447:Drivers/Radio/Src/MY_NRF24.c ****     } else if (level == RF24_PA_m12dB) {
 1451              		.loc 1 447 15 view .LVU277
 1452 0036 F8E7     		b	.L103
 1453              	.L109:
 449:Drivers/Radio/Src/MY_NRF24.c ****     } else if (level == RF24_PA_m18dB) {
 1454              		.loc 1 449 9 is_stmt 1 view .LVU278
 449:Drivers/Radio/Src/MY_NRF24.c ****     } else if (level == RF24_PA_m18dB) {
 1455              		.loc 1 449 15 is_stmt 0 view .LVU279
 1456 0038 41F00201 		orr	r1, r1, #2
 1457              	.LVL126:
 449:Drivers/Radio/Src/MY_NRF24.c ****     } else if (level == RF24_PA_m18dB) {
 1458              		.loc 1 449 15 view .LVU280
 1459 003c F5E7     		b	.L103
 1460              		.cfi_endproc
 1461              	.LFE106:
 1463              		.section	.text.NRF24_getPALevel,"ax",%progbits
 1464              		.align	1
 1465              		.global	NRF24_getPALevel
 1466              		.syntax unified
 1467              		.thumb
 1468              		.thumb_func
 1470              	NRF24_getPALevel:
 1471              	.LFB107:
 459:Drivers/Radio/Src/MY_NRF24.c **** // 31. Get transmit power level
 460:Drivers/Radio/Src/MY_NRF24.c **** rf24_pa_dbm_e NRF24_getPALevel(void) {
 1472              		.loc 1 460 38 is_stmt 1 view -0
 1473              		.cfi_startproc
 1474              		@ args = 0, pretend = 0, frame = 0
 1475              		@ frame_needed = 0, uses_anonymous_args = 0
 1476 0000 08B5     		push	{r3, lr}
ARM GAS  C:\Users\sangt\AppData\Local\Temp\cc6s9Yz8.s 			page 35


 1477              	.LCFI40:
 1478              		.cfi_def_cfa_offset 8
 1479              		.cfi_offset 3, -8
 1480              		.cfi_offset 14, -4
 461:Drivers/Radio/Src/MY_NRF24.c ****     rf24_pa_dbm_e result = RF24_PA_ERROR;
 1481              		.loc 1 461 5 view .LVU282
 1482              	.LVL127:
 462:Drivers/Radio/Src/MY_NRF24.c ****     uint8_t power = NRF24_read_register(REG_RF_SETUP) &
 1483              		.loc 1 462 5 view .LVU283
 1484              		.loc 1 462 21 is_stmt 0 view .LVU284
 1485 0002 0620     		movs	r0, #6
 1486 0004 FFF7FEFF 		bl	NRF24_read_register
 1487              	.LVL128:
 1488              		.loc 1 462 13 view .LVU285
 1489 0008 00F00600 		and	r0, r0, #6
 1490              	.LVL129:
 463:Drivers/Radio/Src/MY_NRF24.c ****                     (_BV(RF_PWR_LOW) | _BV(RF_PWR_HIGH));
 464:Drivers/Radio/Src/MY_NRF24.c **** 
 465:Drivers/Radio/Src/MY_NRF24.c ****     // switch uses RAM (evil!)
 466:Drivers/Radio/Src/MY_NRF24.c ****     if (power == (_BV(RF_PWR_LOW) | _BV(RF_PWR_HIGH))) {
 1491              		.loc 1 466 5 is_stmt 1 view .LVU286
 1492              		.loc 1 466 8 is_stmt 0 view .LVU287
 1493 000c 0628     		cmp	r0, #6
 1494 000e 07D0     		beq	.L112
 467:Drivers/Radio/Src/MY_NRF24.c ****         result = RF24_PA_0dB;
 468:Drivers/Radio/Src/MY_NRF24.c ****     } else if (power == _BV(RF_PWR_HIGH)) {
 1495              		.loc 1 468 12 is_stmt 1 view .LVU288
 1496              		.loc 1 468 15 is_stmt 0 view .LVU289
 1497 0010 0428     		cmp	r0, #4
 1498 0012 07D0     		beq	.L113
 469:Drivers/Radio/Src/MY_NRF24.c ****         result = RF24_PA_m6dB;
 470:Drivers/Radio/Src/MY_NRF24.c ****     } else if (power == _BV(RF_PWR_LOW)) {
 1499              		.loc 1 470 12 is_stmt 1 view .LVU290
 1500              		.loc 1 470 15 is_stmt 0 view .LVU291
 1501 0014 0228     		cmp	r0, #2
 1502 0016 01D0     		beq	.L116
 471:Drivers/Radio/Src/MY_NRF24.c ****         result = RF24_PA_m12dB;
 472:Drivers/Radio/Src/MY_NRF24.c ****     } else {
 473:Drivers/Radio/Src/MY_NRF24.c ****         result = RF24_PA_m18dB;
 1503              		.loc 1 473 16 view .LVU292
 1504 0018 0020     		movs	r0, #0
 1505              	.LVL130:
 1506              	.L111:
 474:Drivers/Radio/Src/MY_NRF24.c ****     }
 475:Drivers/Radio/Src/MY_NRF24.c **** 
 476:Drivers/Radio/Src/MY_NRF24.c ****     return result;
 1507              		.loc 1 476 5 is_stmt 1 view .LVU293
 477:Drivers/Radio/Src/MY_NRF24.c **** }
 1508              		.loc 1 477 1 is_stmt 0 view .LVU294
 1509 001a 08BD     		pop	{r3, pc}
 1510              	.LVL131:
 1511              	.L116:
 471:Drivers/Radio/Src/MY_NRF24.c ****         result = RF24_PA_m12dB;
 1512              		.loc 1 471 16 view .LVU295
 1513 001c 0120     		movs	r0, #1
 1514              	.LVL132:
 471:Drivers/Radio/Src/MY_NRF24.c ****         result = RF24_PA_m12dB;
ARM GAS  C:\Users\sangt\AppData\Local\Temp\cc6s9Yz8.s 			page 36


 1515              		.loc 1 471 16 view .LVU296
 1516 001e FCE7     		b	.L111
 1517              	.LVL133:
 1518              	.L112:
 467:Drivers/Radio/Src/MY_NRF24.c ****     } else if (power == _BV(RF_PWR_HIGH)) {
 1519              		.loc 1 467 16 view .LVU297
 1520 0020 0320     		movs	r0, #3
 1521              	.LVL134:
 467:Drivers/Radio/Src/MY_NRF24.c ****     } else if (power == _BV(RF_PWR_HIGH)) {
 1522              		.loc 1 467 16 view .LVU298
 1523 0022 FAE7     		b	.L111
 1524              	.LVL135:
 1525              	.L113:
 469:Drivers/Radio/Src/MY_NRF24.c ****     } else if (power == _BV(RF_PWR_LOW)) {
 1526              		.loc 1 469 16 view .LVU299
 1527 0024 0220     		movs	r0, #2
 1528              	.LVL136:
 469:Drivers/Radio/Src/MY_NRF24.c ****     } else if (power == _BV(RF_PWR_LOW)) {
 1529              		.loc 1 469 16 view .LVU300
 1530 0026 F8E7     		b	.L111
 1531              		.cfi_endproc
 1532              	.LFE107:
 1534              		.section	.text.NRF24_setDataRate,"ax",%progbits
 1535              		.align	1
 1536              		.global	NRF24_setDataRate
 1537              		.syntax unified
 1538              		.thumb
 1539              		.thumb_func
 1541              	NRF24_setDataRate:
 1542              	.LVL137:
 1543              	.LFB108:
 478:Drivers/Radio/Src/MY_NRF24.c **** // 32. Set data rate (250 Kbps, 1Mbps, 2Mbps)
 479:Drivers/Radio/Src/MY_NRF24.c **** bool NRF24_setDataRate(rf24_datarate_e speed) {
 1544              		.loc 1 479 47 is_stmt 1 view -0
 1545              		.cfi_startproc
 1546              		@ args = 0, pretend = 0, frame = 0
 1547              		@ frame_needed = 0, uses_anonymous_args = 0
 1548              		.loc 1 479 47 is_stmt 0 view .LVU302
 1549 0000 38B5     		push	{r3, r4, r5, lr}
 1550              	.LCFI41:
 1551              		.cfi_def_cfa_offset 16
 1552              		.cfi_offset 3, -16
 1553              		.cfi_offset 4, -12
 1554              		.cfi_offset 5, -8
 1555              		.cfi_offset 14, -4
 1556 0002 0546     		mov	r5, r0
 480:Drivers/Radio/Src/MY_NRF24.c ****     bool result = false;
 1557              		.loc 1 480 5 is_stmt 1 view .LVU303
 1558              	.LVL138:
 481:Drivers/Radio/Src/MY_NRF24.c ****     uint8_t setup = NRF24_read_register(REG_RF_SETUP);
 1559              		.loc 1 481 5 view .LVU304
 1560              		.loc 1 481 21 is_stmt 0 view .LVU305
 1561 0004 0620     		movs	r0, #6
 1562              	.LVL139:
 1563              		.loc 1 481 21 view .LVU306
 1564 0006 FFF7FEFF 		bl	NRF24_read_register
 1565              	.LVL140:
ARM GAS  C:\Users\sangt\AppData\Local\Temp\cc6s9Yz8.s 			page 37


 482:Drivers/Radio/Src/MY_NRF24.c **** 
 483:Drivers/Radio/Src/MY_NRF24.c ****     // HIGH and LOW '00' is 1Mbs - our default
 484:Drivers/Radio/Src/MY_NRF24.c ****     wide_band = false;
 1566              		.loc 1 484 5 is_stmt 1 view .LVU307
 1567              		.loc 1 484 15 is_stmt 0 view .LVU308
 1568 000a 124B     		ldr	r3, .L126
 1569 000c 0022     		movs	r2, #0
 1570 000e 1A70     		strb	r2, [r3]
 485:Drivers/Radio/Src/MY_NRF24.c ****     setup &= ~(_BV(RF_DR_LOW) | _BV(RF_DR_HIGH));
 1571              		.loc 1 485 5 is_stmt 1 view .LVU309
 1572              		.loc 1 485 11 is_stmt 0 view .LVU310
 1573 0010 00F0D704 		and	r4, r0, #215
 1574              	.LVL141:
 486:Drivers/Radio/Src/MY_NRF24.c ****     if (speed == RF24_250KBPS) {
 1575              		.loc 1 486 5 is_stmt 1 view .LVU311
 1576              		.loc 1 486 8 is_stmt 0 view .LVU312
 1577 0014 022D     		cmp	r5, #2
 1578 0016 11D0     		beq	.L124
 487:Drivers/Radio/Src/MY_NRF24.c ****         // Must set the RF_DR_LOW to 1; RF_DR_HIGH (used to be RF_DR) is already
 488:Drivers/Radio/Src/MY_NRF24.c ****         // 0 Making it '10'.
 489:Drivers/Radio/Src/MY_NRF24.c ****         wide_band = false;
 490:Drivers/Radio/Src/MY_NRF24.c ****         setup |= _BV(RF_DR_LOW);
 491:Drivers/Radio/Src/MY_NRF24.c ****     } else {
 492:Drivers/Radio/Src/MY_NRF24.c ****         // Set 2Mbs, RF_DR (RF_DR_HIGH) is set 1
 493:Drivers/Radio/Src/MY_NRF24.c ****         // Making it '01'
 494:Drivers/Radio/Src/MY_NRF24.c ****         if (speed == RF24_2MBPS) {
 1579              		.loc 1 494 9 is_stmt 1 view .LVU313
 1580              		.loc 1 494 12 is_stmt 0 view .LVU314
 1581 0018 012D     		cmp	r5, #1
 1582 001a 13D0     		beq	.L125
 495:Drivers/Radio/Src/MY_NRF24.c ****             wide_band = true;
 496:Drivers/Radio/Src/MY_NRF24.c ****             setup |= _BV(RF_DR_HIGH);
 497:Drivers/Radio/Src/MY_NRF24.c ****         } else {
 498:Drivers/Radio/Src/MY_NRF24.c ****             // 1Mbs
 499:Drivers/Radio/Src/MY_NRF24.c ****             wide_band = false;
 1583              		.loc 1 499 13 is_stmt 1 view .LVU315
 1584              		.loc 1 499 23 is_stmt 0 view .LVU316
 1585 001c 0D4B     		ldr	r3, .L126
 1586 001e 0022     		movs	r2, #0
 1587 0020 1A70     		strb	r2, [r3]
 1588              	.L119:
 500:Drivers/Radio/Src/MY_NRF24.c ****         }
 501:Drivers/Radio/Src/MY_NRF24.c ****     }
 502:Drivers/Radio/Src/MY_NRF24.c ****     NRF24_write_register(REG_RF_SETUP, setup);
 1589              		.loc 1 502 5 is_stmt 1 view .LVU317
 1590 0022 2146     		mov	r1, r4
 1591 0024 0620     		movs	r0, #6
 1592 0026 FFF7FEFF 		bl	NRF24_write_register
 1593              	.LVL142:
 503:Drivers/Radio/Src/MY_NRF24.c **** 
 504:Drivers/Radio/Src/MY_NRF24.c ****     // Verify our result
 505:Drivers/Radio/Src/MY_NRF24.c ****     if (NRF24_read_register(REG_RF_SETUP) == setup) {
 1594              		.loc 1 505 5 view .LVU318
 1595              		.loc 1 505 9 is_stmt 0 view .LVU319
 1596 002a 0620     		movs	r0, #6
 1597 002c FFF7FEFF 		bl	NRF24_read_register
 1598              	.LVL143:
ARM GAS  C:\Users\sangt\AppData\Local\Temp\cc6s9Yz8.s 			page 38


 1599              		.loc 1 505 8 view .LVU320
 1600 0030 A042     		cmp	r0, r4
 1601 0032 0DD0     		beq	.L122
 506:Drivers/Radio/Src/MY_NRF24.c ****         result = true;
 507:Drivers/Radio/Src/MY_NRF24.c ****     } else {
 508:Drivers/Radio/Src/MY_NRF24.c ****         wide_band = false;
 1602              		.loc 1 508 9 is_stmt 1 view .LVU321
 1603              		.loc 1 508 19 is_stmt 0 view .LVU322
 1604 0034 0020     		movs	r0, #0
 1605 0036 074B     		ldr	r3, .L126
 1606 0038 1870     		strb	r0, [r3]
 1607              	.L121:
 1608              	.LVL144:
 509:Drivers/Radio/Src/MY_NRF24.c ****     }
 510:Drivers/Radio/Src/MY_NRF24.c **** 
 511:Drivers/Radio/Src/MY_NRF24.c ****     return result;
 1609              		.loc 1 511 5 is_stmt 1 view .LVU323
 512:Drivers/Radio/Src/MY_NRF24.c **** }
 1610              		.loc 1 512 1 is_stmt 0 view .LVU324
 1611 003a 38BD     		pop	{r3, r4, r5, pc}
 1612              	.LVL145:
 1613              	.L124:
 489:Drivers/Radio/Src/MY_NRF24.c ****         setup |= _BV(RF_DR_LOW);
 1614              		.loc 1 489 9 is_stmt 1 view .LVU325
 489:Drivers/Radio/Src/MY_NRF24.c ****         setup |= _BV(RF_DR_LOW);
 1615              		.loc 1 489 19 is_stmt 0 view .LVU326
 1616 003c 1A70     		strb	r2, [r3]
 490:Drivers/Radio/Src/MY_NRF24.c ****     } else {
 1617              		.loc 1 490 9 is_stmt 1 view .LVU327
 490:Drivers/Radio/Src/MY_NRF24.c ****     } else {
 1618              		.loc 1 490 15 is_stmt 0 view .LVU328
 1619 003e 44F02004 		orr	r4, r4, #32
 1620              	.LVL146:
 490:Drivers/Radio/Src/MY_NRF24.c ****     } else {
 1621              		.loc 1 490 15 view .LVU329
 1622 0042 EEE7     		b	.L119
 1623              	.L125:
 495:Drivers/Radio/Src/MY_NRF24.c ****             setup |= _BV(RF_DR_HIGH);
 1624              		.loc 1 495 13 is_stmt 1 view .LVU330
 495:Drivers/Radio/Src/MY_NRF24.c ****             setup |= _BV(RF_DR_HIGH);
 1625              		.loc 1 495 23 is_stmt 0 view .LVU331
 1626 0044 034B     		ldr	r3, .L126
 1627 0046 0122     		movs	r2, #1
 1628 0048 1A70     		strb	r2, [r3]
 496:Drivers/Radio/Src/MY_NRF24.c ****         } else {
 1629              		.loc 1 496 13 is_stmt 1 view .LVU332
 496:Drivers/Radio/Src/MY_NRF24.c ****         } else {
 1630              		.loc 1 496 19 is_stmt 0 view .LVU333
 1631 004a 44F00804 		orr	r4, r4, #8
 1632              	.LVL147:
 496:Drivers/Radio/Src/MY_NRF24.c ****         } else {
 1633              		.loc 1 496 19 view .LVU334
 1634 004e E8E7     		b	.L119
 1635              	.L122:
 506:Drivers/Radio/Src/MY_NRF24.c ****     } else {
 1636              		.loc 1 506 16 view .LVU335
 1637 0050 0120     		movs	r0, #1
ARM GAS  C:\Users\sangt\AppData\Local\Temp\cc6s9Yz8.s 			page 39


 1638 0052 F2E7     		b	.L121
 1639              	.L127:
 1640              		.align	2
 1641              	.L126:
 1642 0054 00000000 		.word	.LANCHOR9
 1643              		.cfi_endproc
 1644              	.LFE108:
 1646              		.section	.text.NRF24_getDataRate,"ax",%progbits
 1647              		.align	1
 1648              		.global	NRF24_getDataRate
 1649              		.syntax unified
 1650              		.thumb
 1651              		.thumb_func
 1653              	NRF24_getDataRate:
 1654              	.LFB109:
 513:Drivers/Radio/Src/MY_NRF24.c **** // 33. Get data rate
 514:Drivers/Radio/Src/MY_NRF24.c **** rf24_datarate_e NRF24_getDataRate(void) {
 1655              		.loc 1 514 41 is_stmt 1 view -0
 1656              		.cfi_startproc
 1657              		@ args = 0, pretend = 0, frame = 0
 1658              		@ frame_needed = 0, uses_anonymous_args = 0
 1659 0000 08B5     		push	{r3, lr}
 1660              	.LCFI42:
 1661              		.cfi_def_cfa_offset 8
 1662              		.cfi_offset 3, -8
 1663              		.cfi_offset 14, -4
 515:Drivers/Radio/Src/MY_NRF24.c ****     rf24_datarate_e result;
 1664              		.loc 1 515 5 view .LVU337
 516:Drivers/Radio/Src/MY_NRF24.c ****     uint8_t dr =
 1665              		.loc 1 516 5 view .LVU338
 517:Drivers/Radio/Src/MY_NRF24.c ****         NRF24_read_register(REG_RF_SETUP) & (_BV(RF_DR_LOW) | _BV(RF_DR_HIGH));
 1666              		.loc 1 517 9 is_stmt 0 view .LVU339
 1667 0002 0620     		movs	r0, #6
 1668 0004 FFF7FEFF 		bl	NRF24_read_register
 1669              	.LVL148:
 516:Drivers/Radio/Src/MY_NRF24.c ****     uint8_t dr =
 1670              		.loc 1 516 13 view .LVU340
 1671 0008 00F02800 		and	r0, r0, #40
 1672              	.LVL149:
 518:Drivers/Radio/Src/MY_NRF24.c **** 
 519:Drivers/Radio/Src/MY_NRF24.c ****     // switch uses RAM (evil!)
 520:Drivers/Radio/Src/MY_NRF24.c ****     // Order matters in our case below
 521:Drivers/Radio/Src/MY_NRF24.c ****     if (dr == _BV(RF_DR_LOW)) {
 1673              		.loc 1 521 5 is_stmt 1 view .LVU341
 1674              		.loc 1 521 8 is_stmt 0 view .LVU342
 1675 000c 2028     		cmp	r0, #32
 1676 000e 05D0     		beq	.L130
 522:Drivers/Radio/Src/MY_NRF24.c ****         // '10' = 250KBPS
 523:Drivers/Radio/Src/MY_NRF24.c ****         result = RF24_250KBPS;
 524:Drivers/Radio/Src/MY_NRF24.c ****     } else if (dr == _BV(RF_DR_HIGH)) {
 1677              		.loc 1 524 12 is_stmt 1 view .LVU343
 1678              		.loc 1 524 15 is_stmt 0 view .LVU344
 1679 0010 0828     		cmp	r0, #8
 1680 0012 01D0     		beq	.L133
 525:Drivers/Radio/Src/MY_NRF24.c ****         // '01' = 2MBPS
 526:Drivers/Radio/Src/MY_NRF24.c ****         result = RF24_2MBPS;
 527:Drivers/Radio/Src/MY_NRF24.c ****     } else {
ARM GAS  C:\Users\sangt\AppData\Local\Temp\cc6s9Yz8.s 			page 40


 528:Drivers/Radio/Src/MY_NRF24.c ****         // '00' = 1MBPS
 529:Drivers/Radio/Src/MY_NRF24.c ****         result = RF24_1MBPS;
 1681              		.loc 1 529 16 view .LVU345
 1682 0014 0020     		movs	r0, #0
 1683              	.LVL150:
 1684              	.L129:
 530:Drivers/Radio/Src/MY_NRF24.c ****     }
 531:Drivers/Radio/Src/MY_NRF24.c ****     return result;
 1685              		.loc 1 531 5 is_stmt 1 view .LVU346
 532:Drivers/Radio/Src/MY_NRF24.c **** }
 1686              		.loc 1 532 1 is_stmt 0 view .LVU347
 1687 0016 08BD     		pop	{r3, pc}
 1688              	.LVL151:
 1689              	.L133:
 526:Drivers/Radio/Src/MY_NRF24.c ****     } else {
 1690              		.loc 1 526 16 view .LVU348
 1691 0018 0120     		movs	r0, #1
 1692              	.LVL152:
 526:Drivers/Radio/Src/MY_NRF24.c ****     } else {
 1693              		.loc 1 526 16 view .LVU349
 1694 001a FCE7     		b	.L129
 1695              	.LVL153:
 1696              	.L130:
 523:Drivers/Radio/Src/MY_NRF24.c ****     } else if (dr == _BV(RF_DR_HIGH)) {
 1697              		.loc 1 523 16 view .LVU350
 1698 001c 0220     		movs	r0, #2
 1699              	.LVL154:
 523:Drivers/Radio/Src/MY_NRF24.c ****     } else if (dr == _BV(RF_DR_HIGH)) {
 1700              		.loc 1 523 16 view .LVU351
 1701 001e FAE7     		b	.L129
 1702              		.cfi_endproc
 1703              	.LFE109:
 1705              		.section	.text.NRF24_setCRCLength,"ax",%progbits
 1706              		.align	1
 1707              		.global	NRF24_setCRCLength
 1708              		.syntax unified
 1709              		.thumb
 1710              		.thumb_func
 1712              	NRF24_setCRCLength:
 1713              	.LVL155:
 1714              	.LFB110:
 533:Drivers/Radio/Src/MY_NRF24.c **** // 34. Set crc length (disable, 8-bits or 16-bits)
 534:Drivers/Radio/Src/MY_NRF24.c **** void NRF24_setCRCLength(rf24_crclength_e length) {
 1715              		.loc 1 534 50 is_stmt 1 view -0
 1716              		.cfi_startproc
 1717              		@ args = 0, pretend = 0, frame = 0
 1718              		@ frame_needed = 0, uses_anonymous_args = 0
 1719              		.loc 1 534 50 is_stmt 0 view .LVU353
 1720 0000 10B5     		push	{r4, lr}
 1721              	.LCFI43:
 1722              		.cfi_def_cfa_offset 8
 1723              		.cfi_offset 4, -8
 1724              		.cfi_offset 14, -4
 1725 0002 0446     		mov	r4, r0
 535:Drivers/Radio/Src/MY_NRF24.c ****     uint8_t config =
 1726              		.loc 1 535 5 is_stmt 1 view .LVU354
 536:Drivers/Radio/Src/MY_NRF24.c ****         NRF24_read_register(REG_CONFIG) & ~(_BV(BIT_CRCO) | _BV(BIT_EN_CRC));
ARM GAS  C:\Users\sangt\AppData\Local\Temp\cc6s9Yz8.s 			page 41


 1727              		.loc 1 536 9 is_stmt 0 view .LVU355
 1728 0004 0020     		movs	r0, #0
 1729              	.LVL156:
 1730              		.loc 1 536 9 view .LVU356
 1731 0006 FFF7FEFF 		bl	NRF24_read_register
 1732              	.LVL157:
 535:Drivers/Radio/Src/MY_NRF24.c ****     uint8_t config =
 1733              		.loc 1 535 13 view .LVU357
 1734 000a 00F0F301 		and	r1, r0, #243
 1735              	.LVL158:
 537:Drivers/Radio/Src/MY_NRF24.c **** 
 538:Drivers/Radio/Src/MY_NRF24.c ****     // switch uses RAM
 539:Drivers/Radio/Src/MY_NRF24.c ****     if (length == RF24_CRC_DISABLED) {
 1736              		.loc 1 539 5 is_stmt 1 view .LVU358
 1737              		.loc 1 539 8 is_stmt 0 view .LVU359
 1738 000e 1CB1     		cbz	r4, .L135
 540:Drivers/Radio/Src/MY_NRF24.c ****         // Do nothing, we turned it off above.
 541:Drivers/Radio/Src/MY_NRF24.c ****     } else if (length == RF24_CRC_8) {
 1739              		.loc 1 541 12 is_stmt 1 view .LVU360
 1740              		.loc 1 541 15 is_stmt 0 view .LVU361
 1741 0010 012C     		cmp	r4, #1
 1742 0012 05D0     		beq	.L138
 542:Drivers/Radio/Src/MY_NRF24.c ****         config |= _BV(BIT_EN_CRC);
 543:Drivers/Radio/Src/MY_NRF24.c ****     } else {
 544:Drivers/Radio/Src/MY_NRF24.c ****         config |= _BV(BIT_EN_CRC);
 1743              		.loc 1 544 9 is_stmt 1 view .LVU362
 1744              	.LVL159:
 545:Drivers/Radio/Src/MY_NRF24.c ****         config |= _BV(BIT_CRCO);
 1745              		.loc 1 545 9 view .LVU363
 1746              		.loc 1 545 16 is_stmt 0 view .LVU364
 1747 0014 41F00C01 		orr	r1, r1, #12
 1748              	.LVL160:
 1749              	.L135:
 546:Drivers/Radio/Src/MY_NRF24.c ****     }
 547:Drivers/Radio/Src/MY_NRF24.c ****     NRF24_write_register(REG_CONFIG, config);
 1750              		.loc 1 547 5 is_stmt 1 view .LVU365
 1751 0018 0020     		movs	r0, #0
 1752 001a FFF7FEFF 		bl	NRF24_write_register
 1753              	.LVL161:
 548:Drivers/Radio/Src/MY_NRF24.c **** }
 1754              		.loc 1 548 1 is_stmt 0 view .LVU366
 1755 001e 10BD     		pop	{r4, pc}
 1756              	.LVL162:
 1757              	.L138:
 542:Drivers/Radio/Src/MY_NRF24.c ****     } else {
 1758              		.loc 1 542 9 is_stmt 1 view .LVU367
 542:Drivers/Radio/Src/MY_NRF24.c ****     } else {
 1759              		.loc 1 542 16 is_stmt 0 view .LVU368
 1760 0020 41F00801 		orr	r1, r1, #8
 1761              	.LVL163:
 542:Drivers/Radio/Src/MY_NRF24.c ****     } else {
 1762              		.loc 1 542 16 view .LVU369
 1763 0024 F8E7     		b	.L135
 1764              		.cfi_endproc
 1765              	.LFE110:
 1767              		.section	.text.NRF24_getCRCLength,"ax",%progbits
 1768              		.align	1
ARM GAS  C:\Users\sangt\AppData\Local\Temp\cc6s9Yz8.s 			page 42


 1769              		.global	NRF24_getCRCLength
 1770              		.syntax unified
 1771              		.thumb
 1772              		.thumb_func
 1774              	NRF24_getCRCLength:
 1775              	.LFB111:
 549:Drivers/Radio/Src/MY_NRF24.c **** // 35. Get CRC length
 550:Drivers/Radio/Src/MY_NRF24.c **** rf24_crclength_e NRF24_getCRCLength(void) {
 1776              		.loc 1 550 43 is_stmt 1 view -0
 1777              		.cfi_startproc
 1778              		@ args = 0, pretend = 0, frame = 0
 1779              		@ frame_needed = 0, uses_anonymous_args = 0
 1780 0000 08B5     		push	{r3, lr}
 1781              	.LCFI44:
 1782              		.cfi_def_cfa_offset 8
 1783              		.cfi_offset 3, -8
 1784              		.cfi_offset 14, -4
 551:Drivers/Radio/Src/MY_NRF24.c ****     rf24_crclength_e result = RF24_CRC_DISABLED;
 1785              		.loc 1 551 5 view .LVU371
 1786              	.LVL164:
 552:Drivers/Radio/Src/MY_NRF24.c ****     uint8_t config =
 1787              		.loc 1 552 5 view .LVU372
 553:Drivers/Radio/Src/MY_NRF24.c ****         NRF24_read_register(REG_CONFIG) & (_BV(BIT_CRCO) | _BV(BIT_EN_CRC));
 1788              		.loc 1 553 9 is_stmt 0 view .LVU373
 1789 0002 0020     		movs	r0, #0
 1790 0004 FFF7FEFF 		bl	NRF24_read_register
 1791              	.LVL165:
 1792 0008 0346     		mov	r3, r0
 1793              	.LVL166:
 554:Drivers/Radio/Src/MY_NRF24.c **** 
 555:Drivers/Radio/Src/MY_NRF24.c ****     if (config & _BV(BIT_EN_CRC)) {
 1794              		.loc 1 555 5 is_stmt 1 view .LVU374
 1795              		.loc 1 555 8 is_stmt 0 view .LVU375
 1796 000a 10F00800 		ands	r0, r0, #8
 1797              	.LVL167:
 1798              		.loc 1 555 8 view .LVU376
 1799 000e 03D0     		beq	.L140
 556:Drivers/Radio/Src/MY_NRF24.c ****         if (config & _BV(BIT_CRCO))
 1800              		.loc 1 556 9 is_stmt 1 view .LVU377
 1801              		.loc 1 556 12 is_stmt 0 view .LVU378
 1802 0010 13F0040F 		tst	r3, #4
 1803 0014 01D1     		bne	.L143
 557:Drivers/Radio/Src/MY_NRF24.c ****             result = RF24_CRC_16;
 558:Drivers/Radio/Src/MY_NRF24.c ****         else
 559:Drivers/Radio/Src/MY_NRF24.c ****             result = RF24_CRC_8;
 1804              		.loc 1 559 20 view .LVU379
 1805 0016 0120     		movs	r0, #1
 1806              	.L140:
 1807              	.LVL168:
 560:Drivers/Radio/Src/MY_NRF24.c ****     }
 561:Drivers/Radio/Src/MY_NRF24.c **** 
 562:Drivers/Radio/Src/MY_NRF24.c ****     return result;
 1808              		.loc 1 562 5 is_stmt 1 view .LVU380
 563:Drivers/Radio/Src/MY_NRF24.c **** }
 1809              		.loc 1 563 1 is_stmt 0 view .LVU381
 1810 0018 08BD     		pop	{r3, pc}
 1811              	.LVL169:
ARM GAS  C:\Users\sangt\AppData\Local\Temp\cc6s9Yz8.s 			page 43


 1812              	.L143:
 557:Drivers/Radio/Src/MY_NRF24.c ****             result = RF24_CRC_16;
 1813              		.loc 1 557 20 view .LVU382
 1814 001a 0220     		movs	r0, #2
 1815 001c FCE7     		b	.L140
 1816              		.cfi_endproc
 1817              	.LFE111:
 1819              		.section	.text.NRF24_disableCRC,"ax",%progbits
 1820              		.align	1
 1821              		.global	NRF24_disableCRC
 1822              		.syntax unified
 1823              		.thumb
 1824              		.thumb_func
 1826              	NRF24_disableCRC:
 1827              	.LFB112:
 564:Drivers/Radio/Src/MY_NRF24.c **** // 36. Disable CRC
 565:Drivers/Radio/Src/MY_NRF24.c **** void NRF24_disableCRC(void) {
 1828              		.loc 1 565 29 is_stmt 1 view -0
 1829              		.cfi_startproc
 1830              		@ args = 0, pretend = 0, frame = 0
 1831              		@ frame_needed = 0, uses_anonymous_args = 0
 1832 0000 08B5     		push	{r3, lr}
 1833              	.LCFI45:
 1834              		.cfi_def_cfa_offset 8
 1835              		.cfi_offset 3, -8
 1836              		.cfi_offset 14, -4
 566:Drivers/Radio/Src/MY_NRF24.c ****     uint8_t disable = NRF24_read_register(REG_CONFIG) & ~_BV(BIT_EN_CRC);
 1837              		.loc 1 566 5 view .LVU384
 1838              		.loc 1 566 23 is_stmt 0 view .LVU385
 1839 0002 0020     		movs	r0, #0
 1840 0004 FFF7FEFF 		bl	NRF24_read_register
 1841              	.LVL170:
 567:Drivers/Radio/Src/MY_NRF24.c ****     NRF24_write_register(REG_CONFIG, disable);
 1842              		.loc 1 567 5 is_stmt 1 view .LVU386
 1843 0008 00F0F701 		and	r1, r0, #247
 1844 000c 0020     		movs	r0, #0
 1845              	.LVL171:
 1846              		.loc 1 567 5 is_stmt 0 view .LVU387
 1847 000e FFF7FEFF 		bl	NRF24_write_register
 1848              	.LVL172:
 568:Drivers/Radio/Src/MY_NRF24.c **** }
 1849              		.loc 1 568 1 view .LVU388
 1850 0012 08BD     		pop	{r3, pc}
 1851              		.cfi_endproc
 1852              	.LFE112:
 1854              		.section	.text.NRF24_powerUp,"ax",%progbits
 1855              		.align	1
 1856              		.global	NRF24_powerUp
 1857              		.syntax unified
 1858              		.thumb
 1859              		.thumb_func
 1861              	NRF24_powerUp:
 1862              	.LFB113:
 569:Drivers/Radio/Src/MY_NRF24.c **** // 37. power up
 570:Drivers/Radio/Src/MY_NRF24.c **** void NRF24_powerUp(void) {
 1863              		.loc 1 570 26 is_stmt 1 view -0
 1864              		.cfi_startproc
ARM GAS  C:\Users\sangt\AppData\Local\Temp\cc6s9Yz8.s 			page 44


 1865              		@ args = 0, pretend = 0, frame = 0
 1866              		@ frame_needed = 0, uses_anonymous_args = 0
 1867 0000 08B5     		push	{r3, lr}
 1868              	.LCFI46:
 1869              		.cfi_def_cfa_offset 8
 1870              		.cfi_offset 3, -8
 1871              		.cfi_offset 14, -4
 571:Drivers/Radio/Src/MY_NRF24.c ****     NRF24_write_register(REG_CONFIG,
 1872              		.loc 1 571 5 view .LVU390
 572:Drivers/Radio/Src/MY_NRF24.c ****                          NRF24_read_register(REG_CONFIG) | _BV(BIT_PWR_UP));
 1873              		.loc 1 572 26 is_stmt 0 view .LVU391
 1874 0002 0020     		movs	r0, #0
 1875 0004 FFF7FEFF 		bl	NRF24_read_register
 1876              	.LVL173:
 571:Drivers/Radio/Src/MY_NRF24.c ****     NRF24_write_register(REG_CONFIG,
 1877              		.loc 1 571 5 view .LVU392
 1878 0008 40F00201 		orr	r1, r0, #2
 1879 000c C9B2     		uxtb	r1, r1
 1880 000e 0020     		movs	r0, #0
 1881 0010 FFF7FEFF 		bl	NRF24_write_register
 1882              	.LVL174:
 573:Drivers/Radio/Src/MY_NRF24.c **** }
 1883              		.loc 1 573 1 view .LVU393
 1884 0014 08BD     		pop	{r3, pc}
 1885              		.cfi_endproc
 1886              	.LFE113:
 1888              		.section	.text.NRF24_powerDown,"ax",%progbits
 1889              		.align	1
 1890              		.global	NRF24_powerDown
 1891              		.syntax unified
 1892              		.thumb
 1893              		.thumb_func
 1895              	NRF24_powerDown:
 1896              	.LFB114:
 574:Drivers/Radio/Src/MY_NRF24.c **** // 38. power down
 575:Drivers/Radio/Src/MY_NRF24.c **** void NRF24_powerDown(void) {
 1897              		.loc 1 575 28 is_stmt 1 view -0
 1898              		.cfi_startproc
 1899              		@ args = 0, pretend = 0, frame = 0
 1900              		@ frame_needed = 0, uses_anonymous_args = 0
 1901 0000 08B5     		push	{r3, lr}
 1902              	.LCFI47:
 1903              		.cfi_def_cfa_offset 8
 1904              		.cfi_offset 3, -8
 1905              		.cfi_offset 14, -4
 576:Drivers/Radio/Src/MY_NRF24.c ****     NRF24_write_register(REG_CONFIG,
 1906              		.loc 1 576 5 view .LVU395
 577:Drivers/Radio/Src/MY_NRF24.c ****                          NRF24_read_register(REG_CONFIG) & ~_BV(BIT_PWR_UP));
 1907              		.loc 1 577 26 is_stmt 0 view .LVU396
 1908 0002 0020     		movs	r0, #0
 1909 0004 FFF7FEFF 		bl	NRF24_read_register
 1910              	.LVL175:
 576:Drivers/Radio/Src/MY_NRF24.c ****     NRF24_write_register(REG_CONFIG,
 1911              		.loc 1 576 5 view .LVU397
 1912 0008 00F0FD01 		and	r1, r0, #253
 1913 000c 0020     		movs	r0, #0
 1914 000e FFF7FEFF 		bl	NRF24_write_register
ARM GAS  C:\Users\sangt\AppData\Local\Temp\cc6s9Yz8.s 			page 45


 1915              	.LVL176:
 578:Drivers/Radio/Src/MY_NRF24.c **** }
 1916              		.loc 1 578 1 view .LVU398
 1917 0012 08BD     		pop	{r3, pc}
 1918              		.cfi_endproc
 1919              	.LFE114:
 1921              		.section	.text.NRF24_availablePipe,"ax",%progbits
 1922              		.align	1
 1923              		.global	NRF24_availablePipe
 1924              		.syntax unified
 1925              		.thumb
 1926              		.thumb_func
 1928              	NRF24_availablePipe:
 1929              	.LVL177:
 1930              	.LFB115:
 579:Drivers/Radio/Src/MY_NRF24.c **** // 39. Check if data are available and on which pipe (Use this for multiple rx
 580:Drivers/Radio/Src/MY_NRF24.c **** // pipes)
 581:Drivers/Radio/Src/MY_NRF24.c **** bool NRF24_availablePipe(uint8_t *pipe_num) {
 1931              		.loc 1 581 45 is_stmt 1 view -0
 1932              		.cfi_startproc
 1933              		@ args = 0, pretend = 0, frame = 0
 1934              		@ frame_needed = 0, uses_anonymous_args = 0
 1935              		.loc 1 581 45 is_stmt 0 view .LVU400
 1936 0000 70B5     		push	{r4, r5, r6, lr}
 1937              	.LCFI48:
 1938              		.cfi_def_cfa_offset 16
 1939              		.cfi_offset 4, -16
 1940              		.cfi_offset 5, -12
 1941              		.cfi_offset 6, -8
 1942              		.cfi_offset 14, -4
 1943 0002 0546     		mov	r5, r0
 582:Drivers/Radio/Src/MY_NRF24.c ****     uint8_t status = NRF24_get_status();
 1944              		.loc 1 582 5 is_stmt 1 view .LVU401
 1945              		.loc 1 582 22 is_stmt 0 view .LVU402
 1946 0004 FFF7FEFF 		bl	NRF24_get_status
 1947              	.LVL178:
 583:Drivers/Radio/Src/MY_NRF24.c **** 
 584:Drivers/Radio/Src/MY_NRF24.c ****     bool result = (status & _BV(BIT_RX_DR));
 1948              		.loc 1 584 5 is_stmt 1 view .LVU403
 1949 0008 00F04003 		and	r3, r0, #64
 1950              		.loc 1 584 10 is_stmt 0 view .LVU404
 1951 000c 002B     		cmp	r3, #0
 1952 000e 14BF     		ite	ne
 1953 0010 0126     		movne	r6, #1
 1954 0012 0026     		moveq	r6, #0
 1955              	.LVL179:
 585:Drivers/Radio/Src/MY_NRF24.c **** 
 586:Drivers/Radio/Src/MY_NRF24.c ****     if (result) {
 1956              		.loc 1 586 5 is_stmt 1 view .LVU405
 1957              		.loc 1 586 8 is_stmt 0 view .LVU406
 1958 0014 0BD0     		beq	.L151
 1959 0016 0446     		mov	r4, r0
 587:Drivers/Radio/Src/MY_NRF24.c ****         // If the caller wants the pipe number, include that
 588:Drivers/Radio/Src/MY_NRF24.c ****         if (pipe_num) *pipe_num = (status >> BIT_RX_P_NO) & 0x7;
 1960              		.loc 1 588 9 is_stmt 1 view .LVU407
 1961              		.loc 1 588 12 is_stmt 0 view .LVU408
 1962 0018 15B1     		cbz	r5, .L152
ARM GAS  C:\Users\sangt\AppData\Local\Temp\cc6s9Yz8.s 			page 46


 1963              		.loc 1 588 23 is_stmt 1 discriminator 1 view .LVU409
 1964              		.loc 1 588 59 is_stmt 0 discriminator 1 view .LVU410
 1965 001a C0F34203 		ubfx	r3, r0, #1, #3
 1966              		.loc 1 588 33 discriminator 1 view .LVU411
 1967 001e 2B70     		strb	r3, [r5]
 1968              	.L152:
 589:Drivers/Radio/Src/MY_NRF24.c **** 
 590:Drivers/Radio/Src/MY_NRF24.c ****         // Clear the status bit
 591:Drivers/Radio/Src/MY_NRF24.c ****         NRF24_write_register(REG_STATUS, _BV(BIT_RX_DR));
 1969              		.loc 1 591 9 is_stmt 1 view .LVU412
 1970 0020 4021     		movs	r1, #64
 1971 0022 0720     		movs	r0, #7
 1972              	.LVL180:
 1973              		.loc 1 591 9 is_stmt 0 view .LVU413
 1974 0024 FFF7FEFF 		bl	NRF24_write_register
 1975              	.LVL181:
 592:Drivers/Radio/Src/MY_NRF24.c **** 
 593:Drivers/Radio/Src/MY_NRF24.c ****         // Handle ack payload receipt
 594:Drivers/Radio/Src/MY_NRF24.c ****         if (status & _BV(BIT_TX_DS)) {
 1976              		.loc 1 594 9 is_stmt 1 view .LVU414
 1977              		.loc 1 594 12 is_stmt 0 view .LVU415
 1978 0028 14F0200F 		tst	r4, #32
 1979 002c 01D1     		bne	.L154
 1980              	.L151:
 595:Drivers/Radio/Src/MY_NRF24.c ****             NRF24_write_register(REG_STATUS, _BV(BIT_TX_DS));
 596:Drivers/Radio/Src/MY_NRF24.c ****         }
 597:Drivers/Radio/Src/MY_NRF24.c ****     }
 598:Drivers/Radio/Src/MY_NRF24.c ****     return result;
 1981              		.loc 1 598 5 is_stmt 1 view .LVU416
 599:Drivers/Radio/Src/MY_NRF24.c **** }
 1982              		.loc 1 599 1 is_stmt 0 view .LVU417
 1983 002e 3046     		mov	r0, r6
 1984 0030 70BD     		pop	{r4, r5, r6, pc}
 1985              	.LVL182:
 1986              	.L154:
 595:Drivers/Radio/Src/MY_NRF24.c ****             NRF24_write_register(REG_STATUS, _BV(BIT_TX_DS));
 1987              		.loc 1 595 13 is_stmt 1 view .LVU418
 1988 0032 2021     		movs	r1, #32
 1989 0034 0720     		movs	r0, #7
 1990 0036 FFF7FEFF 		bl	NRF24_write_register
 1991              	.LVL183:
 1992 003a F8E7     		b	.L151
 1993              		.cfi_endproc
 1994              	.LFE115:
 1996              		.section	.text.NRF24_available,"ax",%progbits
 1997              		.align	1
 1998              		.global	NRF24_available
 1999              		.syntax unified
 2000              		.thumb
 2001              		.thumb_func
 2003              	NRF24_available:
 2004              	.LFB91:
 317:Drivers/Radio/Src/MY_NRF24.c **** // 17. Read received data
 2005              		.loc 1 317 28 view -0
 2006              		.cfi_startproc
 2007              		@ args = 0, pretend = 0, frame = 0
 2008              		@ frame_needed = 0, uses_anonymous_args = 0
ARM GAS  C:\Users\sangt\AppData\Local\Temp\cc6s9Yz8.s 			page 47


 2009 0000 08B5     		push	{r3, lr}
 2010              	.LCFI49:
 2011              		.cfi_def_cfa_offset 8
 2012              		.cfi_offset 3, -8
 2013              		.cfi_offset 14, -4
 317:Drivers/Radio/Src/MY_NRF24.c **** // 17. Read received data
 2014              		.loc 1 317 30 view .LVU420
 317:Drivers/Radio/Src/MY_NRF24.c **** // 17. Read received data
 2015              		.loc 1 317 37 is_stmt 0 view .LVU421
 2016 0002 0020     		movs	r0, #0
 2017 0004 FFF7FEFF 		bl	NRF24_availablePipe
 2018              	.LVL184:
 317:Drivers/Radio/Src/MY_NRF24.c **** // 17. Read received data
 2019              		.loc 1 317 64 view .LVU422
 2020 0008 08BD     		pop	{r3, pc}
 2021              		.cfi_endproc
 2022              	.LFE91:
 2024              		.section	.text.NRF24_startWrite,"ax",%progbits
 2025              		.align	1
 2026              		.global	NRF24_startWrite
 2027              		.syntax unified
 2028              		.thumb
 2029              		.thumb_func
 2031              	NRF24_startWrite:
 2032              	.LVL185:
 2033              	.LFB116:
 600:Drivers/Radio/Src/MY_NRF24.c **** // 40. Start write (for IRQ mode)
 601:Drivers/Radio/Src/MY_NRF24.c **** void NRF24_startWrite(const void *buf, uint8_t len) {
 2034              		.loc 1 601 53 is_stmt 1 view -0
 2035              		.cfi_startproc
 2036              		@ args = 0, pretend = 0, frame = 0
 2037              		@ frame_needed = 0, uses_anonymous_args = 0
 2038              		.loc 1 601 53 is_stmt 0 view .LVU424
 2039 0000 38B5     		push	{r3, r4, r5, lr}
 2040              	.LCFI50:
 2041              		.cfi_def_cfa_offset 16
 2042              		.cfi_offset 3, -16
 2043              		.cfi_offset 4, -12
 2044              		.cfi_offset 5, -8
 2045              		.cfi_offset 14, -4
 2046 0002 0446     		mov	r4, r0
 2047 0004 0D46     		mov	r5, r1
 602:Drivers/Radio/Src/MY_NRF24.c ****     // Transmitter power-up
 603:Drivers/Radio/Src/MY_NRF24.c ****     NRF24_ce(0);
 2048              		.loc 1 603 5 is_stmt 1 view .LVU425
 2049 0006 0020     		movs	r0, #0
 2050              	.LVL186:
 2051              		.loc 1 603 5 is_stmt 0 view .LVU426
 2052 0008 FFF7FEFF 		bl	NRF24_ce
 2053              	.LVL187:
 604:Drivers/Radio/Src/MY_NRF24.c ****     NRF24_write_register(REG_CONFIG,
 2054              		.loc 1 604 5 is_stmt 1 view .LVU427
 605:Drivers/Radio/Src/MY_NRF24.c ****                          (NRF24_read_register(REG_CONFIG) | _BV(BIT_PWR_UP)) &
 2055              		.loc 1 605 27 is_stmt 0 view .LVU428
 2056 000c 0020     		movs	r0, #0
 2057 000e FFF7FEFF 		bl	NRF24_read_register
 2058              	.LVL188:
ARM GAS  C:\Users\sangt\AppData\Local\Temp\cc6s9Yz8.s 			page 48


 604:Drivers/Radio/Src/MY_NRF24.c ****     NRF24_write_register(REG_CONFIG,
 2059              		.loc 1 604 5 view .LVU429
 2060 0012 20F00103 		bic	r3, r0, #1
 2061 0016 43F00203 		orr	r3, r3, #2
 2062 001a 03F0FE01 		and	r1, r3, #254
 2063 001e 0020     		movs	r0, #0
 2064 0020 FFF7FEFF 		bl	NRF24_write_register
 2065              	.LVL189:
 606:Drivers/Radio/Src/MY_NRF24.c ****                              ~_BV(BIT_PRIM_RX));
 607:Drivers/Radio/Src/MY_NRF24.c ****     // Send the payload
 608:Drivers/Radio/Src/MY_NRF24.c ****     NRF24_ce(1);
 2066              		.loc 1 608 5 is_stmt 1 view .LVU430
 2067 0024 0120     		movs	r0, #1
 2068 0026 FFF7FEFF 		bl	NRF24_ce
 2069              	.LVL190:
 609:Drivers/Radio/Src/MY_NRF24.c ****     NRF24_DelayMicroSeconds(150);
 2070              		.loc 1 609 5 view .LVU431
 610:Drivers/Radio/Src/MY_NRF24.c ****     NRF24_write_payload(buf, len);
 2071              		.loc 1 610 5 view .LVU432
 2072 002a 2946     		mov	r1, r5
 2073 002c 2046     		mov	r0, r4
 2074 002e FFF7FEFF 		bl	NRF24_write_payload
 2075              	.LVL191:
 611:Drivers/Radio/Src/MY_NRF24.c ****     // Enable Tx for 15usec
 612:Drivers/Radio/Src/MY_NRF24.c ****     NRF24_ce(1);
 2076              		.loc 1 612 5 view .LVU433
 2077 0032 0120     		movs	r0, #1
 2078 0034 FFF7FEFF 		bl	NRF24_ce
 2079              	.LVL192:
 613:Drivers/Radio/Src/MY_NRF24.c ****     NRF24_DelayMicroSeconds(15);
 2080              		.loc 1 613 5 view .LVU434
 614:Drivers/Radio/Src/MY_NRF24.c ****     NRF24_ce(0);
 2081              		.loc 1 614 5 view .LVU435
 2082 0038 0020     		movs	r0, #0
 2083 003a FFF7FEFF 		bl	NRF24_ce
 2084              	.LVL193:
 615:Drivers/Radio/Src/MY_NRF24.c **** }
 2085              		.loc 1 615 1 is_stmt 0 view .LVU436
 2086 003e 38BD     		pop	{r3, r4, r5, pc}
 2087              		.loc 1 615 1 view .LVU437
 2088              		.cfi_endproc
 2089              	.LFE116:
 2091              		.section	.text.NRF24_writeAckPayload,"ax",%progbits
 2092              		.align	1
 2093              		.global	NRF24_writeAckPayload
 2094              		.syntax unified
 2095              		.thumb
 2096              		.thumb_func
 2098              	NRF24_writeAckPayload:
 2099              	.LVL194:
 2100              	.LFB117:
 616:Drivers/Radio/Src/MY_NRF24.c **** // 41. Write acknowledge payload
 617:Drivers/Radio/Src/MY_NRF24.c **** void NRF24_writeAckPayload(uint8_t pipe, const void *buf, uint8_t len) {
 2101              		.loc 1 617 72 is_stmt 1 view -0
 2102              		.cfi_startproc
 2103              		@ args = 0, pretend = 0, frame = 0
 2104              		@ frame_needed = 0, uses_anonymous_args = 0
ARM GAS  C:\Users\sangt\AppData\Local\Temp\cc6s9Yz8.s 			page 49


 2105              		.loc 1 617 72 is_stmt 0 view .LVU439
 2106 0000 70B5     		push	{r4, r5, r6, lr}
 2107              	.LCFI51:
 2108              		.cfi_def_cfa_offset 16
 2109              		.cfi_offset 4, -16
 2110              		.cfi_offset 5, -12
 2111              		.cfi_offset 6, -8
 2112              		.cfi_offset 14, -4
 2113 0002 0446     		mov	r4, r0
 2114 0004 0D46     		mov	r5, r1
 618:Drivers/Radio/Src/MY_NRF24.c ****     const uint8_t *current = (uint8_t *)buf;
 2115              		.loc 1 618 5 is_stmt 1 view .LVU440
 2116              	.LVL195:
 619:Drivers/Radio/Src/MY_NRF24.c ****     const uint8_t max_payload_size = 32;
 2117              		.loc 1 619 5 view .LVU441
 620:Drivers/Radio/Src/MY_NRF24.c ****     uint8_t data_len = MIN(len, max_payload_size);
 2118              		.loc 1 620 5 view .LVU442
 2119              		.loc 1 620 13 is_stmt 0 view .LVU443
 2120 0006 202A     		cmp	r2, #32
 2121 0008 28BF     		it	cs
 2122 000a 2022     		movcs	r2, #32
 2123              	.LVL196:
 2124              		.loc 1 620 13 view .LVU444
 2125 000c 1646     		mov	r6, r2
 2126              	.LVL197:
 621:Drivers/Radio/Src/MY_NRF24.c **** 
 622:Drivers/Radio/Src/MY_NRF24.c ****     NRF24_csn(0);
 2127              		.loc 1 622 5 is_stmt 1 view .LVU445
 2128 000e 0020     		movs	r0, #0
 2129              	.LVL198:
 2130              		.loc 1 622 5 is_stmt 0 view .LVU446
 2131 0010 FFF7FEFF 		bl	NRF24_csn
 2132              	.LVL199:
 623:Drivers/Radio/Src/MY_NRF24.c ****     NRF24_write_registerN(CMD_W_ACK_PAYLOAD | (pipe & 0x7), current, data_len);
 2133              		.loc 1 623 5 is_stmt 1 view .LVU447
 2134              		.loc 1 623 53 is_stmt 0 view .LVU448
 2135 0014 04F00700 		and	r0, r4, #7
 2136              		.loc 1 623 5 view .LVU449
 2137 0018 3246     		mov	r2, r6
 2138 001a 2946     		mov	r1, r5
 2139 001c 40F0A800 		orr	r0, r0, #168
 2140 0020 FFF7FEFF 		bl	NRF24_write_registerN
 2141              	.LVL200:
 624:Drivers/Radio/Src/MY_NRF24.c ****     NRF24_csn(1);
 2142              		.loc 1 624 5 is_stmt 1 view .LVU450
 2143 0024 0120     		movs	r0, #1
 2144 0026 FFF7FEFF 		bl	NRF24_csn
 2145              	.LVL201:
 625:Drivers/Radio/Src/MY_NRF24.c **** }
 2146              		.loc 1 625 1 is_stmt 0 view .LVU451
 2147 002a 70BD     		pop	{r4, r5, r6, pc}
 2148              		.loc 1 625 1 view .LVU452
 2149              		.cfi_endproc
 2150              	.LFE117:
 2152              		.section	.text.NRF24_isAckPayloadAvailable,"ax",%progbits
 2153              		.align	1
 2154              		.global	NRF24_isAckPayloadAvailable
ARM GAS  C:\Users\sangt\AppData\Local\Temp\cc6s9Yz8.s 			page 50


 2155              		.syntax unified
 2156              		.thumb
 2157              		.thumb_func
 2159              	NRF24_isAckPayloadAvailable:
 2160              	.LFB118:
 626:Drivers/Radio/Src/MY_NRF24.c **** // 42. Check if an Ack payload is available
 627:Drivers/Radio/Src/MY_NRF24.c **** bool NRF24_isAckPayloadAvailable(void) {
 2161              		.loc 1 627 40 is_stmt 1 view -0
 2162              		.cfi_startproc
 2163              		@ args = 0, pretend = 0, frame = 0
 2164              		@ frame_needed = 0, uses_anonymous_args = 0
 2165              		@ link register save eliminated.
 628:Drivers/Radio/Src/MY_NRF24.c ****     bool result = ack_payload_available;
 2166              		.loc 1 628 5 view .LVU454
 2167              		.loc 1 628 10 is_stmt 0 view .LVU455
 2168 0000 024B     		ldr	r3, .L162
 2169 0002 1878     		ldrb	r0, [r3]	@ zero_extendqisi2
 2170              	.LVL202:
 629:Drivers/Radio/Src/MY_NRF24.c ****     ack_payload_available = false;
 2171              		.loc 1 629 5 is_stmt 1 view .LVU456
 2172              		.loc 1 629 27 is_stmt 0 view .LVU457
 2173 0004 0022     		movs	r2, #0
 2174 0006 1A70     		strb	r2, [r3]
 630:Drivers/Radio/Src/MY_NRF24.c ****     return result;
 2175              		.loc 1 630 5 is_stmt 1 view .LVU458
 631:Drivers/Radio/Src/MY_NRF24.c **** }
 2176              		.loc 1 631 1 is_stmt 0 view .LVU459
 2177 0008 7047     		bx	lr
 2178              	.L163:
 2179 000a 00BF     		.align	2
 2180              	.L162:
 2181 000c 00000000 		.word	.LANCHOR10
 2182              		.cfi_endproc
 2183              	.LFE118:
 2185              		.section	.text.NRF24_whatHappened,"ax",%progbits
 2186              		.align	1
 2187              		.global	NRF24_whatHappened
 2188              		.syntax unified
 2189              		.thumb
 2190              		.thumb_func
 2192              	NRF24_whatHappened:
 2193              	.LVL203:
 2194              	.LFB119:
 632:Drivers/Radio/Src/MY_NRF24.c **** // 43. Check interrupt flags
 633:Drivers/Radio/Src/MY_NRF24.c **** void NRF24_whatHappened(bool *tx_ok, bool *tx_fail, bool *rx_ready) {
 2195              		.loc 1 633 69 is_stmt 1 view -0
 2196              		.cfi_startproc
 2197              		@ args = 0, pretend = 0, frame = 0
 2198              		@ frame_needed = 0, uses_anonymous_args = 0
 2199              		.loc 1 633 69 is_stmt 0 view .LVU461
 2200 0000 F8B5     		push	{r3, r4, r5, r6, r7, lr}
 2201              	.LCFI52:
 2202              		.cfi_def_cfa_offset 24
 2203              		.cfi_offset 3, -24
 2204              		.cfi_offset 4, -20
 2205              		.cfi_offset 5, -16
 2206              		.cfi_offset 6, -12
ARM GAS  C:\Users\sangt\AppData\Local\Temp\cc6s9Yz8.s 			page 51


 2207              		.cfi_offset 7, -8
 2208              		.cfi_offset 14, -4
 2209 0002 0546     		mov	r5, r0
 2210 0004 0F46     		mov	r7, r1
 2211 0006 1646     		mov	r6, r2
 634:Drivers/Radio/Src/MY_NRF24.c ****     uint8_t status = NRF24_get_status();
 2212              		.loc 1 634 5 is_stmt 1 view .LVU462
 2213              		.loc 1 634 22 is_stmt 0 view .LVU463
 2214 0008 FFF7FEFF 		bl	NRF24_get_status
 2215              	.LVL204:
 2216              		.loc 1 634 22 view .LVU464
 2217 000c 0446     		mov	r4, r0
 2218              	.LVL205:
 635:Drivers/Radio/Src/MY_NRF24.c ****     *tx_ok = 0;
 2219              		.loc 1 635 5 is_stmt 1 view .LVU465
 2220              		.loc 1 635 12 is_stmt 0 view .LVU466
 2221 000e 0023     		movs	r3, #0
 2222 0010 2B70     		strb	r3, [r5]
 636:Drivers/Radio/Src/MY_NRF24.c ****     NRF24_write_register(REG_STATUS,
 2223              		.loc 1 636 5 is_stmt 1 view .LVU467
 2224 0012 7021     		movs	r1, #112
 2225 0014 0720     		movs	r0, #7
 2226 0016 FFF7FEFF 		bl	NRF24_write_register
 2227              	.LVL206:
 637:Drivers/Radio/Src/MY_NRF24.c ****                          _BV(BIT_RX_DR) | _BV(BIT_TX_DS) | _BV(BIT_MAX_RT));
 638:Drivers/Radio/Src/MY_NRF24.c ****     // Report to the user what happened
 639:Drivers/Radio/Src/MY_NRF24.c ****     *tx_ok = status & _BV(BIT_TX_DS);
 2228              		.loc 1 639 5 view .LVU468
 2229              		.loc 1 639 21 is_stmt 0 view .LVU469
 2230 001a C4F34013 		ubfx	r3, r4, #5, #1
 2231              		.loc 1 639 12 view .LVU470
 2232 001e 2B70     		strb	r3, [r5]
 640:Drivers/Radio/Src/MY_NRF24.c ****     *tx_fail = status & _BV(BIT_MAX_RT);
 2233              		.loc 1 640 5 is_stmt 1 view .LVU471
 2234              		.loc 1 640 23 is_stmt 0 view .LVU472
 2235 0020 C4F30013 		ubfx	r3, r4, #4, #1
 2236              		.loc 1 640 14 view .LVU473
 2237 0024 3B70     		strb	r3, [r7]
 641:Drivers/Radio/Src/MY_NRF24.c ****     *rx_ready = status & _BV(BIT_RX_DR);
 2238              		.loc 1 641 5 is_stmt 1 view .LVU474
 2239              		.loc 1 641 24 is_stmt 0 view .LVU475
 2240 0026 C4F38014 		ubfx	r4, r4, #6, #1
 2241              	.LVL207:
 2242              		.loc 1 641 15 view .LVU476
 2243 002a 3470     		strb	r4, [r6]
 642:Drivers/Radio/Src/MY_NRF24.c **** }
 2244              		.loc 1 642 1 view .LVU477
 2245 002c F8BD     		pop	{r3, r4, r5, r6, r7, pc}
 2246              		.loc 1 642 1 view .LVU478
 2247              		.cfi_endproc
 2248              	.LFE119:
 2250              		.section	.text.NRF24_testCarrier,"ax",%progbits
 2251              		.align	1
 2252              		.global	NRF24_testCarrier
 2253              		.syntax unified
 2254              		.thumb
 2255              		.thumb_func
ARM GAS  C:\Users\sangt\AppData\Local\Temp\cc6s9Yz8.s 			page 52


 2257              	NRF24_testCarrier:
 2258              	.LFB120:
 643:Drivers/Radio/Src/MY_NRF24.c **** // 44. Test if there is a carrier on the previous listenning period (useful to
 644:Drivers/Radio/Src/MY_NRF24.c **** // check for intereference)
 645:Drivers/Radio/Src/MY_NRF24.c **** bool NRF24_testCarrier(void) { return NRF24_read_register(REG_CD) & 1; }
 2259              		.loc 1 645 30 is_stmt 1 view -0
 2260              		.cfi_startproc
 2261              		@ args = 0, pretend = 0, frame = 0
 2262              		@ frame_needed = 0, uses_anonymous_args = 0
 2263 0000 08B5     		push	{r3, lr}
 2264              	.LCFI53:
 2265              		.cfi_def_cfa_offset 8
 2266              		.cfi_offset 3, -8
 2267              		.cfi_offset 14, -4
 2268              		.loc 1 645 32 view .LVU480
 2269              		.loc 1 645 39 is_stmt 0 view .LVU481
 2270 0002 0920     		movs	r0, #9
 2271 0004 FFF7FEFF 		bl	NRF24_read_register
 2272              	.LVL208:
 2273              		.loc 1 645 72 view .LVU482
 2274 0008 00F00100 		and	r0, r0, #1
 2275 000c 08BD     		pop	{r3, pc}
 2276              		.cfi_endproc
 2277              	.LFE120:
 2279              		.section	.text.NRF24_testRPD,"ax",%progbits
 2280              		.align	1
 2281              		.global	NRF24_testRPD
 2282              		.syntax unified
 2283              		.thumb
 2284              		.thumb_func
 2286              	NRF24_testRPD:
 2287              	.LFB121:
 646:Drivers/Radio/Src/MY_NRF24.c **** // 45. Test if a signal carrier exists (=> -64dB), only for NRF24L01+
 647:Drivers/Radio/Src/MY_NRF24.c **** bool NRF24_testRPD(void) { return NRF24_read_register(REG_RPD) & 1; }
 2288              		.loc 1 647 26 is_stmt 1 view -0
 2289              		.cfi_startproc
 2290              		@ args = 0, pretend = 0, frame = 0
 2291              		@ frame_needed = 0, uses_anonymous_args = 0
 2292 0000 08B5     		push	{r3, lr}
 2293              	.LCFI54:
 2294              		.cfi_def_cfa_offset 8
 2295              		.cfi_offset 3, -8
 2296              		.cfi_offset 14, -4
 2297              		.loc 1 647 28 view .LVU484
 2298              		.loc 1 647 35 is_stmt 0 view .LVU485
 2299 0002 0920     		movs	r0, #9
 2300 0004 FFF7FEFF 		bl	NRF24_read_register
 2301              	.LVL209:
 2302              		.loc 1 647 69 view .LVU486
 2303 0008 00F00100 		and	r0, r0, #1
 2304 000c 08BD     		pop	{r3, pc}
 2305              		.cfi_endproc
 2306              	.LFE121:
 2308              		.section	.text.NRF24_resetStatus,"ax",%progbits
 2309              		.align	1
 2310              		.global	NRF24_resetStatus
 2311              		.syntax unified
ARM GAS  C:\Users\sangt\AppData\Local\Temp\cc6s9Yz8.s 			page 53


 2312              		.thumb
 2313              		.thumb_func
 2315              	NRF24_resetStatus:
 2316              	.LFB122:
 648:Drivers/Radio/Src/MY_NRF24.c **** 
 649:Drivers/Radio/Src/MY_NRF24.c **** // 46. Reset Status
 650:Drivers/Radio/Src/MY_NRF24.c **** void NRF24_resetStatus(void) {
 2317              		.loc 1 650 30 is_stmt 1 view -0
 2318              		.cfi_startproc
 2319              		@ args = 0, pretend = 0, frame = 0
 2320              		@ frame_needed = 0, uses_anonymous_args = 0
 2321 0000 08B5     		push	{r3, lr}
 2322              	.LCFI55:
 2323              		.cfi_def_cfa_offset 8
 2324              		.cfi_offset 3, -8
 2325              		.cfi_offset 14, -4
 651:Drivers/Radio/Src/MY_NRF24.c ****     NRF24_write_register(REG_STATUS,
 2326              		.loc 1 651 5 view .LVU488
 2327 0002 7021     		movs	r1, #112
 2328 0004 0720     		movs	r0, #7
 2329 0006 FFF7FEFF 		bl	NRF24_write_register
 2330              	.LVL210:
 652:Drivers/Radio/Src/MY_NRF24.c ****                          _BV(BIT_RX_DR) | _BV(BIT_TX_DS) | _BV(BIT_MAX_RT));
 653:Drivers/Radio/Src/MY_NRF24.c **** }
 2331              		.loc 1 653 1 is_stmt 0 view .LVU489
 2332 000a 08BD     		pop	{r3, pc}
 2333              		.cfi_endproc
 2334              	.LFE122:
 2336              		.section	.rodata.NRF24_write.str1.4,"aMS",%progbits,1
 2337              		.align	2
 2338              	.LC0:
 2339 0000 52657472 		.ascii	"Retransmition:%d\015\012\000"
 2339      616E736D 
 2339      6974696F 
 2339      6E3A2564 
 2339      0D0A00
 2340 0013 00       		.align	2
 2341              	.LC1:
 2342 0014 546F7461 		.ascii	"Total Lost:%d\015\012\000"
 2342      6C204C6F 
 2342      73743A25 
 2342      640D0A00 
 2343              		.section	.text.NRF24_write,"ax",%progbits
 2344              		.align	1
 2345              		.global	NRF24_write
 2346              		.syntax unified
 2347              		.thumb
 2348              		.thumb_func
 2350              	NRF24_write:
 2351              	.LVL211:
 2352              	.LFB90:
 281:Drivers/Radio/Src/MY_NRF24.c ****     bool retStatus;
 2353              		.loc 1 281 48 is_stmt 1 view -0
 2354              		.cfi_startproc
 2355              		@ args = 0, pretend = 0, frame = 8
 2356              		@ frame_needed = 0, uses_anonymous_args = 0
 281:Drivers/Radio/Src/MY_NRF24.c ****     bool retStatus;
ARM GAS  C:\Users\sangt\AppData\Local\Temp\cc6s9Yz8.s 			page 54


 2357              		.loc 1 281 48 is_stmt 0 view .LVU491
 2358 0000 30B5     		push	{r4, r5, lr}
 2359              	.LCFI56:
 2360              		.cfi_def_cfa_offset 12
 2361              		.cfi_offset 4, -12
 2362              		.cfi_offset 5, -8
 2363              		.cfi_offset 14, -4
 2364 0002 83B0     		sub	sp, sp, #12
 2365              	.LCFI57:
 2366              		.cfi_def_cfa_offset 24
 2367 0004 0446     		mov	r4, r0
 2368 0006 0D46     		mov	r5, r1
 282:Drivers/Radio/Src/MY_NRF24.c ****     // Start writing
 2369              		.loc 1 282 5 is_stmt 1 view .LVU492
 284:Drivers/Radio/Src/MY_NRF24.c ****     NRF24_startWrite(buf, len);
 2370              		.loc 1 284 5 view .LVU493
 2371 0008 FFF7FEFF 		bl	NRF24_resetStatus
 2372              	.LVL212:
 285:Drivers/Radio/Src/MY_NRF24.c ****     // Data monitor
 2373              		.loc 1 285 5 view .LVU494
 2374 000c 2946     		mov	r1, r5
 2375 000e 2046     		mov	r0, r4
 2376 0010 FFF7FEFF 		bl	NRF24_startWrite
 2377              	.LVL213:
 287:Drivers/Radio/Src/MY_NRF24.c ****     uint8_t status;
 2378              		.loc 1 287 5 view .LVU495
 288:Drivers/Radio/Src/MY_NRF24.c ****     uint32_t sent_at = HAL_GetTick();
 2379              		.loc 1 288 5 view .LVU496
 289:Drivers/Radio/Src/MY_NRF24.c ****     const uint32_t timeout = 40;  // ms to wait for timeout
 2380              		.loc 1 289 5 view .LVU497
 289:Drivers/Radio/Src/MY_NRF24.c ****     const uint32_t timeout = 40;  // ms to wait for timeout
 2381              		.loc 1 289 24 is_stmt 0 view .LVU498
 2382 0014 FFF7FEFF 		bl	HAL_GetTick
 2383              	.LVL214:
 2384 0018 0446     		mov	r4, r0
 2385              	.LVL215:
 290:Drivers/Radio/Src/MY_NRF24.c ****     do {
 2386              		.loc 1 290 5 is_stmt 1 view .LVU499
 2387              	.L174:
 291:Drivers/Radio/Src/MY_NRF24.c ****         NRF24_read_registerN(REG_OBSERVE_TX, &observe_tx, 1);
 2388              		.loc 1 291 5 view .LVU500
 292:Drivers/Radio/Src/MY_NRF24.c ****         printf("Retransmition:%d\r\n", observe_tx & 0x0F);
 2389              		.loc 1 292 9 view .LVU501
 2390 001a 0122     		movs	r2, #1
 2391 001c 0DF10701 		add	r1, sp, #7
 2392 0020 0820     		movs	r0, #8
 2393 0022 FFF7FEFF 		bl	NRF24_read_registerN
 2394              	.LVL216:
 293:Drivers/Radio/Src/MY_NRF24.c ****         printf("Total Lost:%d\r\n", (observe_tx & 0xF0) >> 4);
 2395              		.loc 1 293 9 view .LVU502
 2396 0026 9DF80710 		ldrb	r1, [sp, #7]	@ zero_extendqisi2
 2397 002a 01F00F01 		and	r1, r1, #15
 2398 002e 1748     		ldr	r0, .L178
 2399 0030 FFF7FEFF 		bl	printf
 2400              	.LVL217:
 294:Drivers/Radio/Src/MY_NRF24.c ****         // Get status register
 2401              		.loc 1 294 9 view .LVU503
ARM GAS  C:\Users\sangt\AppData\Local\Temp\cc6s9Yz8.s 			page 55


 294:Drivers/Radio/Src/MY_NRF24.c ****         // Get status register
 2402              		.loc 1 294 57 is_stmt 0 view .LVU504
 2403 0034 9DF80710 		ldrb	r1, [sp, #7]	@ zero_extendqisi2
 294:Drivers/Radio/Src/MY_NRF24.c ****         // Get status register
 2404              		.loc 1 294 9 view .LVU505
 2405 0038 0909     		lsrs	r1, r1, #4
 2406 003a 1548     		ldr	r0, .L178+4
 2407 003c FFF7FEFF 		bl	printf
 2408              	.LVL218:
 296:Drivers/Radio/Src/MY_NRF24.c ****     } while ((!(status & (_BV(BIT_TX_DS) | _BV(BIT_MAX_RT)))) &&
 2409              		.loc 1 296 9 is_stmt 1 view .LVU506
 296:Drivers/Radio/Src/MY_NRF24.c ****     } while ((!(status & (_BV(BIT_TX_DS) | _BV(BIT_MAX_RT)))) &&
 2410              		.loc 1 296 18 is_stmt 0 view .LVU507
 2411 0040 FFF7FEFF 		bl	NRF24_get_status
 2412              	.LVL219:
 297:Drivers/Radio/Src/MY_NRF24.c ****              (HAL_GetTick() - sent_at < timeout));
 2413              		.loc 1 297 13 is_stmt 1 view .LVU508
 298:Drivers/Radio/Src/MY_NRF24.c **** 
 2414              		.loc 1 298 14 is_stmt 0 view .LVU509
 2415 0044 10F0300F 		tst	r0, #48
 2416 0048 04D1     		bne	.L173
 298:Drivers/Radio/Src/MY_NRF24.c **** 
 2417              		.loc 1 298 15 discriminator 1 view .LVU510
 2418 004a FFF7FEFF 		bl	HAL_GetTick
 2419              	.LVL220:
 298:Drivers/Radio/Src/MY_NRF24.c **** 
 2420              		.loc 1 298 29 discriminator 1 view .LVU511
 2421 004e 001B     		subs	r0, r0, r4
 297:Drivers/Radio/Src/MY_NRF24.c ****              (HAL_GetTick() - sent_at < timeout));
 2422              		.loc 1 297 63 discriminator 1 view .LVU512
 2423 0050 2728     		cmp	r0, #39
 2424 0052 E2D9     		bls	.L174
 2425              	.L173:
 303:Drivers/Radio/Src/MY_NRF24.c ****     NRF24_whatHappened(&tx_ok, &tx_fail, &ack_payload_available);
 2426              		.loc 1 303 5 is_stmt 1 view .LVU513
 304:Drivers/Radio/Src/MY_NRF24.c ****     retStatus = tx_ok;
 2427              		.loc 1 304 5 view .LVU514
 2428 0054 0F4C     		ldr	r4, .L178+8
 2429              	.LVL221:
 304:Drivers/Radio/Src/MY_NRF24.c ****     retStatus = tx_ok;
 2430              		.loc 1 304 5 is_stmt 0 view .LVU515
 2431 0056 2246     		mov	r2, r4
 2432 0058 0DF10501 		add	r1, sp, #5
 2433 005c 0DF10600 		add	r0, sp, #6
 2434 0060 FFF7FEFF 		bl	NRF24_whatHappened
 2435              	.LVL222:
 305:Drivers/Radio/Src/MY_NRF24.c ****     if (ack_payload_available) {
 2436              		.loc 1 305 5 is_stmt 1 view .LVU516
 305:Drivers/Radio/Src/MY_NRF24.c ****     if (ack_payload_available) {
 2437              		.loc 1 305 15 is_stmt 0 view .LVU517
 2438 0064 9DF80650 		ldrb	r5, [sp, #6]	@ zero_extendqisi2
 2439              	.LVL223:
 306:Drivers/Radio/Src/MY_NRF24.c ****         ack_payload_length = NRF24_getDynamicPayloadSize();
 2440              		.loc 1 306 5 is_stmt 1 view .LVU518
 306:Drivers/Radio/Src/MY_NRF24.c ****         ack_payload_length = NRF24_getDynamicPayloadSize();
 2441              		.loc 1 306 9 is_stmt 0 view .LVU519
 2442 0068 2378     		ldrb	r3, [r4]	@ zero_extendqisi2
ARM GAS  C:\Users\sangt\AppData\Local\Temp\cc6s9Yz8.s 			page 56


 306:Drivers/Radio/Src/MY_NRF24.c ****         ack_payload_length = NRF24_getDynamicPayloadSize();
 2443              		.loc 1 306 8 view .LVU520
 2444 006a 4BB9     		cbnz	r3, .L177
 2445              	.L175:
 311:Drivers/Radio/Src/MY_NRF24.c ****     NRF24_available();
 2446              		.loc 1 311 5 is_stmt 1 view .LVU521
 2447 006c 0020     		movs	r0, #0
 2448 006e FFF7FEFF 		bl	NRF24_ce
 2449              	.LVL224:
 312:Drivers/Radio/Src/MY_NRF24.c ****     NRF24_flush_tx();
 2450              		.loc 1 312 5 view .LVU522
 2451 0072 FFF7FEFF 		bl	NRF24_available
 2452              	.LVL225:
 313:Drivers/Radio/Src/MY_NRF24.c ****     return retStatus;
 2453              		.loc 1 313 5 view .LVU523
 2454 0076 FFF7FEFF 		bl	NRF24_flush_tx
 2455              	.LVL226:
 314:Drivers/Radio/Src/MY_NRF24.c **** }
 2456              		.loc 1 314 5 view .LVU524
 315:Drivers/Radio/Src/MY_NRF24.c **** // 16. Check for available data to read
 2457              		.loc 1 315 1 is_stmt 0 view .LVU525
 2458 007a 2846     		mov	r0, r5
 2459 007c 03B0     		add	sp, sp, #12
 2460              	.LCFI58:
 2461              		.cfi_remember_state
 2462              		.cfi_def_cfa_offset 12
 2463              		@ sp needed
 2464 007e 30BD     		pop	{r4, r5, pc}
 2465              	.LVL227:
 2466              	.L177:
 2467              	.LCFI59:
 2468              		.cfi_restore_state
 307:Drivers/Radio/Src/MY_NRF24.c ****     }
 2469              		.loc 1 307 9 is_stmt 1 view .LVU526
 307:Drivers/Radio/Src/MY_NRF24.c ****     }
 2470              		.loc 1 307 30 is_stmt 0 view .LVU527
 2471 0080 FFF7FEFF 		bl	NRF24_getDynamicPayloadSize
 2472              	.LVL228:
 307:Drivers/Radio/Src/MY_NRF24.c ****     }
 2473              		.loc 1 307 28 view .LVU528
 2474 0084 044B     		ldr	r3, .L178+12
 2475 0086 1870     		strb	r0, [r3]
 2476 0088 F0E7     		b	.L175
 2477              	.L179:
 2478 008a 00BF     		.align	2
 2479              	.L178:
 2480 008c 00000000 		.word	.LC0
 2481 0090 14000000 		.word	.LC1
 2482 0094 00000000 		.word	.LANCHOR10
 2483 0098 00000000 		.word	.LANCHOR11
 2484              		.cfi_endproc
 2485              	.LFE90:
 2487              		.section	.text.NRF24_ACTIVATE_cmd,"ax",%progbits
 2488              		.align	1
 2489              		.global	NRF24_ACTIVATE_cmd
 2490              		.syntax unified
 2491              		.thumb
ARM GAS  C:\Users\sangt\AppData\Local\Temp\cc6s9Yz8.s 			page 57


 2492              		.thumb_func
 2494              	NRF24_ACTIVATE_cmd:
 2495              	.LFB123:
 654:Drivers/Radio/Src/MY_NRF24.c **** 
 655:Drivers/Radio/Src/MY_NRF24.c **** // 47. ACTIVATE cmd
 656:Drivers/Radio/Src/MY_NRF24.c **** void NRF24_ACTIVATE_cmd(void) {
 2496              		.loc 1 656 31 is_stmt 1 view -0
 2497              		.cfi_startproc
 2498              		@ args = 0, pretend = 0, frame = 8
 2499              		@ frame_needed = 0, uses_anonymous_args = 0
 2500 0000 00B5     		push	{lr}
 2501              	.LCFI60:
 2502              		.cfi_def_cfa_offset 4
 2503              		.cfi_offset 14, -4
 2504 0002 83B0     		sub	sp, sp, #12
 2505              	.LCFI61:
 2506              		.cfi_def_cfa_offset 16
 657:Drivers/Radio/Src/MY_NRF24.c ****     uint8_t cmdRxBuf[2];
 2507              		.loc 1 657 5 view .LVU530
 658:Drivers/Radio/Src/MY_NRF24.c ****     // Read data from Rx payload buffer
 659:Drivers/Radio/Src/MY_NRF24.c ****     NRF24_csn(0);
 2508              		.loc 1 659 5 view .LVU531
 2509 0004 0020     		movs	r0, #0
 2510 0006 FFF7FEFF 		bl	NRF24_csn
 2511              	.LVL229:
 660:Drivers/Radio/Src/MY_NRF24.c ****     cmdRxBuf[0] = CMD_ACTIVATE;
 2512              		.loc 1 660 5 view .LVU532
 2513              		.loc 1 660 17 is_stmt 0 view .LVU533
 2514 000a 5023     		movs	r3, #80
 2515 000c 8DF80430 		strb	r3, [sp, #4]
 661:Drivers/Radio/Src/MY_NRF24.c ****     cmdRxBuf[1] = 0x73;
 2516              		.loc 1 661 5 is_stmt 1 view .LVU534
 2517              		.loc 1 661 17 is_stmt 0 view .LVU535
 2518 0010 7323     		movs	r3, #115
 2519 0012 8DF80530 		strb	r3, [sp, #5]
 662:Drivers/Radio/Src/MY_NRF24.c ****     HAL_SPI_Transmit(&nrf24_hspi, cmdRxBuf, 2, 100);
 2520              		.loc 1 662 5 is_stmt 1 view .LVU536
 2521 0016 6423     		movs	r3, #100
 2522 0018 0222     		movs	r2, #2
 2523 001a 01A9     		add	r1, sp, #4
 2524 001c 0448     		ldr	r0, .L182
 2525 001e FFF7FEFF 		bl	HAL_SPI_Transmit
 2526              	.LVL230:
 663:Drivers/Radio/Src/MY_NRF24.c ****     NRF24_csn(1);
 2527              		.loc 1 663 5 view .LVU537
 2528 0022 0120     		movs	r0, #1
 2529 0024 FFF7FEFF 		bl	NRF24_csn
 2530              	.LVL231:
 664:Drivers/Radio/Src/MY_NRF24.c **** }
 2531              		.loc 1 664 1 is_stmt 0 view .LVU538
 2532 0028 03B0     		add	sp, sp, #12
 2533              	.LCFI62:
 2534              		.cfi_def_cfa_offset 4
 2535              		@ sp needed
 2536 002a 5DF804FB 		ldr	pc, [sp], #4
 2537              	.L183:
 2538 002e 00BF     		.align	2
ARM GAS  C:\Users\sangt\AppData\Local\Temp\cc6s9Yz8.s 			page 58


 2539              	.L182:
 2540 0030 00000000 		.word	.LANCHOR3
 2541              		.cfi_endproc
 2542              	.LFE123:
 2544              		.section	.text.NRF24_begin,"ax",%progbits
 2545              		.align	1
 2546              		.global	NRF24_begin
 2547              		.syntax unified
 2548              		.thumb
 2549              		.thumb_func
 2551              	NRF24_begin:
 2552              	.LVL232:
 2553              	.LFB87:
 172:Drivers/Radio/Src/MY_NRF24.c ****     // Copy SPI handle variable
 2554              		.loc 1 172 64 is_stmt 1 view -0
 2555              		.cfi_startproc
 2556              		@ args = 92, pretend = 8, frame = 8
 2557              		@ frame_needed = 0, uses_anonymous_args = 0
 172:Drivers/Radio/Src/MY_NRF24.c ****     // Copy SPI handle variable
 2558              		.loc 1 172 64 is_stmt 0 view .LVU540
 2559 0000 82B0     		sub	sp, sp, #8
 2560              	.LCFI63:
 2561              		.cfi_def_cfa_offset 8
 2562 0002 70B5     		push	{r4, r5, r6, lr}
 2563              	.LCFI64:
 2564              		.cfi_def_cfa_offset 24
 2565              		.cfi_offset 4, -24
 2566              		.cfi_offset 5, -20
 2567              		.cfi_offset 6, -16
 2568              		.cfi_offset 14, -12
 2569 0004 82B0     		sub	sp, sp, #8
 2570              	.LCFI65:
 2571              		.cfi_def_cfa_offset 32
 2572 0006 0646     		mov	r6, r0
 2573 0008 0D46     		mov	r5, r1
 2574 000a 1446     		mov	r4, r2
 2575 000c 06A9     		add	r1, sp, #24
 2576 000e 41F8043F 		str	r3, [r1, #4]!
 174:Drivers/Radio/Src/MY_NRF24.c ****     // Copy Pins and Port variables
 2577              		.loc 1 174 5 is_stmt 1 view .LVU541
 2578 0012 5822     		movs	r2, #88
 2579              	.LVL233:
 174:Drivers/Radio/Src/MY_NRF24.c ****     // Copy Pins and Port variables
 2580              		.loc 1 174 5 is_stmt 0 view .LVU542
 2581 0014 5F48     		ldr	r0, .L186
 2582              	.LVL234:
 174:Drivers/Radio/Src/MY_NRF24.c ****     // Copy Pins and Port variables
 2583              		.loc 1 174 5 view .LVU543
 2584 0016 FFF7FEFF 		bl	memcpy
 2585              	.LVL235:
 176:Drivers/Radio/Src/MY_NRF24.c ****     nrf24_CSN_PIN = nrfCSN_Pin;
 2586              		.loc 1 176 5 is_stmt 1 view .LVU544
 176:Drivers/Radio/Src/MY_NRF24.c ****     nrf24_CSN_PIN = nrfCSN_Pin;
 2587              		.loc 1 176 16 is_stmt 0 view .LVU545
 2588 001a 5F4B     		ldr	r3, .L186+4
 2589 001c 1E60     		str	r6, [r3]
 177:Drivers/Radio/Src/MY_NRF24.c ****     nrf24_CE_PIN = nrfCE_Pin;
ARM GAS  C:\Users\sangt\AppData\Local\Temp\cc6s9Yz8.s 			page 59


 2590              		.loc 1 177 5 is_stmt 1 view .LVU546
 177:Drivers/Radio/Src/MY_NRF24.c ****     nrf24_CE_PIN = nrfCE_Pin;
 2591              		.loc 1 177 19 is_stmt 0 view .LVU547
 2592 001e 5F4B     		ldr	r3, .L186+8
 2593 0020 1D80     		strh	r5, [r3]	@ movhi
 178:Drivers/Radio/Src/MY_NRF24.c **** 
 2594              		.loc 1 178 5 is_stmt 1 view .LVU548
 178:Drivers/Radio/Src/MY_NRF24.c **** 
 2595              		.loc 1 178 18 is_stmt 0 view .LVU549
 2596 0022 5F4B     		ldr	r3, .L186+12
 2597 0024 1C80     		strh	r4, [r3]	@ movhi
 181:Drivers/Radio/Src/MY_NRF24.c ****     NRF24_ce(0);
 2598              		.loc 1 181 5 is_stmt 1 view .LVU550
 2599 0026 0120     		movs	r0, #1
 2600 0028 FFF7FEFF 		bl	NRF24_csn
 2601              	.LVL236:
 182:Drivers/Radio/Src/MY_NRF24.c ****     // 5 ms initial delay
 2602              		.loc 1 182 5 view .LVU551
 2603 002c 0020     		movs	r0, #0
 2604 002e FFF7FEFF 		bl	NRF24_ce
 2605              	.LVL237:
 184:Drivers/Radio/Src/MY_NRF24.c **** 
 2606              		.loc 1 184 5 view .LVU552
 2607 0032 0520     		movs	r0, #5
 2608 0034 FFF7FEFF 		bl	HAL_Delay
 2609              	.LVL238:
 187:Drivers/Radio/Src/MY_NRF24.c ****     NRF24_write_register(0x01, 0x3f);
 2610              		.loc 1 187 5 view .LVU553
 2611 0038 0821     		movs	r1, #8
 2612 003a 0020     		movs	r0, #0
 2613 003c FFF7FEFF 		bl	NRF24_write_register
 2614              	.LVL239:
 188:Drivers/Radio/Src/MY_NRF24.c ****     NRF24_write_register(0x02, 0x03);
 2615              		.loc 1 188 5 view .LVU554
 2616 0040 3F21     		movs	r1, #63
 2617 0042 0120     		movs	r0, #1
 2618 0044 FFF7FEFF 		bl	NRF24_write_register
 2619              	.LVL240:
 189:Drivers/Radio/Src/MY_NRF24.c ****     NRF24_write_register(0x03, 0x03);
 2620              		.loc 1 189 5 view .LVU555
 2621 0048 0321     		movs	r1, #3
 2622 004a 0220     		movs	r0, #2
 2623 004c FFF7FEFF 		bl	NRF24_write_register
 2624              	.LVL241:
 190:Drivers/Radio/Src/MY_NRF24.c ****     NRF24_write_register(0x04, 0x03);
 2625              		.loc 1 190 5 view .LVU556
 2626 0050 0321     		movs	r1, #3
 2627 0052 0846     		mov	r0, r1
 2628 0054 FFF7FEFF 		bl	NRF24_write_register
 2629              	.LVL242:
 191:Drivers/Radio/Src/MY_NRF24.c ****     NRF24_write_register(0x05, 0x02);
 2630              		.loc 1 191 5 view .LVU557
 2631 0058 0321     		movs	r1, #3
 2632 005a 0420     		movs	r0, #4
 2633 005c FFF7FEFF 		bl	NRF24_write_register
 2634              	.LVL243:
 192:Drivers/Radio/Src/MY_NRF24.c ****     NRF24_write_register(0x06, 0x0f);
ARM GAS  C:\Users\sangt\AppData\Local\Temp\cc6s9Yz8.s 			page 60


 2635              		.loc 1 192 5 view .LVU558
 2636 0060 0221     		movs	r1, #2
 2637 0062 0520     		movs	r0, #5
 2638 0064 FFF7FEFF 		bl	NRF24_write_register
 2639              	.LVL244:
 193:Drivers/Radio/Src/MY_NRF24.c ****     NRF24_write_register(0x07, 0x0e);
 2640              		.loc 1 193 5 view .LVU559
 2641 0068 0F21     		movs	r1, #15
 2642 006a 0620     		movs	r0, #6
 2643 006c FFF7FEFF 		bl	NRF24_write_register
 2644              	.LVL245:
 194:Drivers/Radio/Src/MY_NRF24.c ****     NRF24_write_register(0x08, 0x00);
 2645              		.loc 1 194 5 view .LVU560
 2646 0070 0E21     		movs	r1, #14
 2647 0072 0720     		movs	r0, #7
 2648 0074 FFF7FEFF 		bl	NRF24_write_register
 2649              	.LVL246:
 195:Drivers/Radio/Src/MY_NRF24.c ****     NRF24_write_register(0x09, 0x00);
 2650              		.loc 1 195 5 view .LVU561
 2651 0078 0021     		movs	r1, #0
 2652 007a 0820     		movs	r0, #8
 2653 007c FFF7FEFF 		bl	NRF24_write_register
 2654              	.LVL247:
 196:Drivers/Radio/Src/MY_NRF24.c ****     uint8_t pipeAddrVar[6];
 2655              		.loc 1 196 5 view .LVU562
 2656 0080 0021     		movs	r1, #0
 2657 0082 0920     		movs	r0, #9
 2658 0084 FFF7FEFF 		bl	NRF24_write_register
 2659              	.LVL248:
 197:Drivers/Radio/Src/MY_NRF24.c ****     pipeAddrVar[4] = 0xE7;
 2660              		.loc 1 197 5 view .LVU563
 198:Drivers/Radio/Src/MY_NRF24.c ****     pipeAddrVar[3] = 0xE7;
 2661              		.loc 1 198 5 view .LVU564
 198:Drivers/Radio/Src/MY_NRF24.c ****     pipeAddrVar[3] = 0xE7;
 2662              		.loc 1 198 20 is_stmt 0 view .LVU565
 2663 0088 E724     		movs	r4, #231
 2664 008a 8DF80440 		strb	r4, [sp, #4]
 199:Drivers/Radio/Src/MY_NRF24.c ****     pipeAddrVar[2] = 0xE7;
 2665              		.loc 1 199 5 is_stmt 1 view .LVU566
 199:Drivers/Radio/Src/MY_NRF24.c ****     pipeAddrVar[2] = 0xE7;
 2666              		.loc 1 199 20 is_stmt 0 view .LVU567
 2667 008e 8DF80340 		strb	r4, [sp, #3]
 200:Drivers/Radio/Src/MY_NRF24.c ****     pipeAddrVar[1] = 0xE7;
 2668              		.loc 1 200 5 is_stmt 1 view .LVU568
 200:Drivers/Radio/Src/MY_NRF24.c ****     pipeAddrVar[1] = 0xE7;
 2669              		.loc 1 200 20 is_stmt 0 view .LVU569
 2670 0092 8DF80240 		strb	r4, [sp, #2]
 201:Drivers/Radio/Src/MY_NRF24.c ****     pipeAddrVar[0] = 0xE7;
 2671              		.loc 1 201 5 is_stmt 1 view .LVU570
 201:Drivers/Radio/Src/MY_NRF24.c ****     pipeAddrVar[0] = 0xE7;
 2672              		.loc 1 201 20 is_stmt 0 view .LVU571
 2673 0096 8DF80140 		strb	r4, [sp, #1]
 202:Drivers/Radio/Src/MY_NRF24.c ****     NRF24_write_registerN(0x0A, pipeAddrVar, 5);
 2674              		.loc 1 202 5 is_stmt 1 view .LVU572
 202:Drivers/Radio/Src/MY_NRF24.c ****     NRF24_write_registerN(0x0A, pipeAddrVar, 5);
 2675              		.loc 1 202 20 is_stmt 0 view .LVU573
 2676 009a 8DF80040 		strb	r4, [sp]
ARM GAS  C:\Users\sangt\AppData\Local\Temp\cc6s9Yz8.s 			page 61


 203:Drivers/Radio/Src/MY_NRF24.c ****     pipeAddrVar[4] = 0xC2;
 2677              		.loc 1 203 5 is_stmt 1 view .LVU574
 2678 009e 0522     		movs	r2, #5
 2679 00a0 6946     		mov	r1, sp
 2680 00a2 0A20     		movs	r0, #10
 2681 00a4 FFF7FEFF 		bl	NRF24_write_registerN
 2682              	.LVL249:
 204:Drivers/Radio/Src/MY_NRF24.c ****     pipeAddrVar[3] = 0xC2;
 2683              		.loc 1 204 5 view .LVU575
 204:Drivers/Radio/Src/MY_NRF24.c ****     pipeAddrVar[3] = 0xC2;
 2684              		.loc 1 204 20 is_stmt 0 view .LVU576
 2685 00a8 C223     		movs	r3, #194
 2686 00aa 8DF80430 		strb	r3, [sp, #4]
 205:Drivers/Radio/Src/MY_NRF24.c ****     pipeAddrVar[2] = 0xC2;
 2687              		.loc 1 205 5 is_stmt 1 view .LVU577
 205:Drivers/Radio/Src/MY_NRF24.c ****     pipeAddrVar[2] = 0xC2;
 2688              		.loc 1 205 20 is_stmt 0 view .LVU578
 2689 00ae 8DF80330 		strb	r3, [sp, #3]
 206:Drivers/Radio/Src/MY_NRF24.c ****     pipeAddrVar[1] = 0xC2;
 2690              		.loc 1 206 5 is_stmt 1 view .LVU579
 206:Drivers/Radio/Src/MY_NRF24.c ****     pipeAddrVar[1] = 0xC2;
 2691              		.loc 1 206 20 is_stmt 0 view .LVU580
 2692 00b2 8DF80230 		strb	r3, [sp, #2]
 207:Drivers/Radio/Src/MY_NRF24.c ****     pipeAddrVar[0] = 0xC2;
 2693              		.loc 1 207 5 is_stmt 1 view .LVU581
 207:Drivers/Radio/Src/MY_NRF24.c ****     pipeAddrVar[0] = 0xC2;
 2694              		.loc 1 207 20 is_stmt 0 view .LVU582
 2695 00b6 8DF80130 		strb	r3, [sp, #1]
 208:Drivers/Radio/Src/MY_NRF24.c ****     NRF24_write_registerN(0x0B, pipeAddrVar, 5);
 2696              		.loc 1 208 5 is_stmt 1 view .LVU583
 208:Drivers/Radio/Src/MY_NRF24.c ****     NRF24_write_registerN(0x0B, pipeAddrVar, 5);
 2697              		.loc 1 208 20 is_stmt 0 view .LVU584
 2698 00ba 8DF80030 		strb	r3, [sp]
 209:Drivers/Radio/Src/MY_NRF24.c ****     NRF24_write_register(0x0C, 0xC3);
 2699              		.loc 1 209 5 is_stmt 1 view .LVU585
 2700 00be 0522     		movs	r2, #5
 2701 00c0 6946     		mov	r1, sp
 2702 00c2 0B20     		movs	r0, #11
 2703 00c4 FFF7FEFF 		bl	NRF24_write_registerN
 2704              	.LVL250:
 210:Drivers/Radio/Src/MY_NRF24.c ****     NRF24_write_register(0x0D, 0xC4);
 2705              		.loc 1 210 5 view .LVU586
 2706 00c8 C321     		movs	r1, #195
 2707 00ca 0C20     		movs	r0, #12
 2708 00cc FFF7FEFF 		bl	NRF24_write_register
 2709              	.LVL251:
 211:Drivers/Radio/Src/MY_NRF24.c ****     NRF24_write_register(0x0E, 0xC5);
 2710              		.loc 1 211 5 view .LVU587
 2711 00d0 C421     		movs	r1, #196
 2712 00d2 0D20     		movs	r0, #13
 2713 00d4 FFF7FEFF 		bl	NRF24_write_register
 2714              	.LVL252:
 212:Drivers/Radio/Src/MY_NRF24.c ****     NRF24_write_register(0x0F, 0xC6);
 2715              		.loc 1 212 5 view .LVU588
 2716 00d8 C521     		movs	r1, #197
 2717 00da 0E20     		movs	r0, #14
 2718 00dc FFF7FEFF 		bl	NRF24_write_register
ARM GAS  C:\Users\sangt\AppData\Local\Temp\cc6s9Yz8.s 			page 62


 2719              	.LVL253:
 213:Drivers/Radio/Src/MY_NRF24.c ****     pipeAddrVar[4] = 0xE7;
 2720              		.loc 1 213 5 view .LVU589
 2721 00e0 C621     		movs	r1, #198
 2722 00e2 0F20     		movs	r0, #15
 2723 00e4 FFF7FEFF 		bl	NRF24_write_register
 2724              	.LVL254:
 214:Drivers/Radio/Src/MY_NRF24.c ****     pipeAddrVar[3] = 0xE7;
 2725              		.loc 1 214 5 view .LVU590
 214:Drivers/Radio/Src/MY_NRF24.c ****     pipeAddrVar[3] = 0xE7;
 2726              		.loc 1 214 20 is_stmt 0 view .LVU591
 2727 00e8 8DF80440 		strb	r4, [sp, #4]
 215:Drivers/Radio/Src/MY_NRF24.c ****     pipeAddrVar[2] = 0xE7;
 2728              		.loc 1 215 5 is_stmt 1 view .LVU592
 215:Drivers/Radio/Src/MY_NRF24.c ****     pipeAddrVar[2] = 0xE7;
 2729              		.loc 1 215 20 is_stmt 0 view .LVU593
 2730 00ec 8DF80340 		strb	r4, [sp, #3]
 216:Drivers/Radio/Src/MY_NRF24.c ****     pipeAddrVar[1] = 0xE7;
 2731              		.loc 1 216 5 is_stmt 1 view .LVU594
 216:Drivers/Radio/Src/MY_NRF24.c ****     pipeAddrVar[1] = 0xE7;
 2732              		.loc 1 216 20 is_stmt 0 view .LVU595
 2733 00f0 8DF80240 		strb	r4, [sp, #2]
 217:Drivers/Radio/Src/MY_NRF24.c ****     pipeAddrVar[0] = 0xE7;
 2734              		.loc 1 217 5 is_stmt 1 view .LVU596
 217:Drivers/Radio/Src/MY_NRF24.c ****     pipeAddrVar[0] = 0xE7;
 2735              		.loc 1 217 20 is_stmt 0 view .LVU597
 2736 00f4 8DF80140 		strb	r4, [sp, #1]
 218:Drivers/Radio/Src/MY_NRF24.c ****     NRF24_write_registerN(0x10, pipeAddrVar, 5);
 2737              		.loc 1 218 5 is_stmt 1 view .LVU598
 218:Drivers/Radio/Src/MY_NRF24.c ****     NRF24_write_registerN(0x10, pipeAddrVar, 5);
 2738              		.loc 1 218 20 is_stmt 0 view .LVU599
 2739 00f8 8DF80040 		strb	r4, [sp]
 219:Drivers/Radio/Src/MY_NRF24.c ****     NRF24_write_register(0x11, 0);
 2740              		.loc 1 219 5 is_stmt 1 view .LVU600
 2741 00fc 0522     		movs	r2, #5
 2742 00fe 6946     		mov	r1, sp
 2743 0100 1020     		movs	r0, #16
 2744 0102 FFF7FEFF 		bl	NRF24_write_registerN
 2745              	.LVL255:
 220:Drivers/Radio/Src/MY_NRF24.c ****     NRF24_write_register(0x12, 0);
 2746              		.loc 1 220 5 view .LVU601
 2747 0106 0021     		movs	r1, #0
 2748 0108 1120     		movs	r0, #17
 2749 010a FFF7FEFF 		bl	NRF24_write_register
 2750              	.LVL256:
 221:Drivers/Radio/Src/MY_NRF24.c ****     NRF24_write_register(0x13, 0);
 2751              		.loc 1 221 5 view .LVU602
 2752 010e 0021     		movs	r1, #0
 2753 0110 1220     		movs	r0, #18
 2754 0112 FFF7FEFF 		bl	NRF24_write_register
 2755              	.LVL257:
 222:Drivers/Radio/Src/MY_NRF24.c ****     NRF24_write_register(0x14, 0);
 2756              		.loc 1 222 5 view .LVU603
 2757 0116 0021     		movs	r1, #0
 2758 0118 1320     		movs	r0, #19
 2759 011a FFF7FEFF 		bl	NRF24_write_register
 2760              	.LVL258:
ARM GAS  C:\Users\sangt\AppData\Local\Temp\cc6s9Yz8.s 			page 63


 223:Drivers/Radio/Src/MY_NRF24.c ****     NRF24_write_register(0x15, 0);
 2761              		.loc 1 223 5 view .LVU604
 2762 011e 0021     		movs	r1, #0
 2763 0120 1420     		movs	r0, #20
 2764 0122 FFF7FEFF 		bl	NRF24_write_register
 2765              	.LVL259:
 224:Drivers/Radio/Src/MY_NRF24.c ****     NRF24_write_register(0x16, 0);
 2766              		.loc 1 224 5 view .LVU605
 2767 0126 0021     		movs	r1, #0
 2768 0128 1520     		movs	r0, #21
 2769 012a FFF7FEFF 		bl	NRF24_write_register
 2770              	.LVL260:
 225:Drivers/Radio/Src/MY_NRF24.c **** 
 2771              		.loc 1 225 5 view .LVU606
 2772 012e 0021     		movs	r1, #0
 2773 0130 1620     		movs	r0, #22
 2774 0132 FFF7FEFF 		bl	NRF24_write_register
 2775              	.LVL261:
 227:Drivers/Radio/Src/MY_NRF24.c ****     NRF24_write_register(0x1c, 0);
 2776              		.loc 1 227 5 view .LVU607
 2777 0136 FFF7FEFF 		bl	NRF24_ACTIVATE_cmd
 2778              	.LVL262:
 228:Drivers/Radio/Src/MY_NRF24.c ****     NRF24_write_register(0x1d, 0);
 2779              		.loc 1 228 5 view .LVU608
 2780 013a 0021     		movs	r1, #0
 2781 013c 1C20     		movs	r0, #28
 2782 013e FFF7FEFF 		bl	NRF24_write_register
 2783              	.LVL263:
 229:Drivers/Radio/Src/MY_NRF24.c ****     // printRadioSettings();
 2784              		.loc 1 229 5 view .LVU609
 2785 0142 0021     		movs	r1, #0
 2786 0144 1D20     		movs	r0, #29
 2787 0146 FFF7FEFF 		bl	NRF24_write_register
 2788              	.LVL264:
 232:Drivers/Radio/Src/MY_NRF24.c ****     // Initialise PA level to max (0dB)
 2789              		.loc 1 232 5 view .LVU610
 2790 014a 0F21     		movs	r1, #15
 2791 014c 0846     		mov	r0, r1
 2792 014e FFF7FEFF 		bl	NRF24_setRetries
 2793              	.LVL265:
 234:Drivers/Radio/Src/MY_NRF24.c ****     // Initialise data rate to 1Mbps
 2794              		.loc 1 234 5 view .LVU611
 2795 0152 0320     		movs	r0, #3
 2796 0154 FFF7FEFF 		bl	NRF24_setPALevel
 2797              	.LVL266:
 236:Drivers/Radio/Src/MY_NRF24.c ****     // Initalise CRC length to 16-bit (2 bytes)
 2798              		.loc 1 236 5 view .LVU612
 2799 0158 0120     		movs	r0, #1
 2800 015a FFF7FEFF 		bl	NRF24_setDataRate
 2801              	.LVL267:
 238:Drivers/Radio/Src/MY_NRF24.c ****     // Disable dynamic payload
 2802              		.loc 1 238 5 view .LVU613
 2803 015e 0220     		movs	r0, #2
 2804 0160 FFF7FEFF 		bl	NRF24_setCRCLength
 2805              	.LVL268:
 240:Drivers/Radio/Src/MY_NRF24.c ****     // Set payload size
 2806              		.loc 1 240 5 view .LVU614
ARM GAS  C:\Users\sangt\AppData\Local\Temp\cc6s9Yz8.s 			page 64


 2807 0164 FFF7FEFF 		bl	NRF24_disableDynamicPayloads
 2808              	.LVL269:
 242:Drivers/Radio/Src/MY_NRF24.c **** 
 2809              		.loc 1 242 5 view .LVU615
 2810 0168 2020     		movs	r0, #32
 2811 016a FFF7FEFF 		bl	NRF24_setPayloadSize
 2812              	.LVL270:
 245:Drivers/Radio/Src/MY_NRF24.c ****     // Initialise channel to 76
 2813              		.loc 1 245 5 view .LVU616
 2814 016e FFF7FEFF 		bl	NRF24_resetStatus
 2815              	.LVL271:
 247:Drivers/Radio/Src/MY_NRF24.c ****     // Flush buffers
 2816              		.loc 1 247 5 view .LVU617
 2817 0172 4C20     		movs	r0, #76
 2818 0174 FFF7FEFF 		bl	NRF24_setChannel
 2819              	.LVL272:
 249:Drivers/Radio/Src/MY_NRF24.c ****     NRF24_flush_rx();
 2820              		.loc 1 249 5 view .LVU618
 2821 0178 FFF7FEFF 		bl	NRF24_flush_tx
 2822              	.LVL273:
 250:Drivers/Radio/Src/MY_NRF24.c ****     // Go to standby I state
 2823              		.loc 1 250 5 view .LVU619
 2824 017c FFF7FEFF 		bl	NRF24_flush_rx
 2825              	.LVL274:
 252:Drivers/Radio/Src/MY_NRF24.c ****     HAL_Delay(5);
 2826              		.loc 1 252 5 view .LVU620
 2827 0180 FFF7FEFF 		bl	NRF24_powerUp
 2828              	.LVL275:
 253:Drivers/Radio/Src/MY_NRF24.c **** }
 2829              		.loc 1 253 5 view .LVU621
 2830 0184 0520     		movs	r0, #5
 2831 0186 FFF7FEFF 		bl	HAL_Delay
 2832              	.LVL276:
 254:Drivers/Radio/Src/MY_NRF24.c **** // 13. Listen on open pipes for reading (Must call NRF24_openReadingPipe()
 2833              		.loc 1 254 1 is_stmt 0 view .LVU622
 2834 018a 02B0     		add	sp, sp, #8
 2835              	.LCFI66:
 2836              		.cfi_def_cfa_offset 24
 2837              		@ sp needed
 2838 018c BDE87040 		pop	{r4, r5, r6, lr}
 2839              	.LCFI67:
 2840              		.cfi_restore 14
 2841              		.cfi_restore 6
 2842              		.cfi_restore 5
 2843              		.cfi_restore 4
 2844              		.cfi_def_cfa_offset 8
 2845              	.LVL277:
 254:Drivers/Radio/Src/MY_NRF24.c **** // 13. Listen on open pipes for reading (Must call NRF24_openReadingPipe()
 2846              		.loc 1 254 1 view .LVU623
 2847 0190 02B0     		add	sp, sp, #8
 2848              	.LCFI68:
 2849              		.cfi_def_cfa_offset 0
 2850 0192 7047     		bx	lr
 2851              	.L187:
 2852              		.align	2
 2853              	.L186:
 2854 0194 00000000 		.word	.LANCHOR3
ARM GAS  C:\Users\sangt\AppData\Local\Temp\cc6s9Yz8.s 			page 65


 2855 0198 00000000 		.word	.LANCHOR1
 2856 019c 00000000 		.word	.LANCHOR0
 2857 01a0 00000000 		.word	.LANCHOR2
 2858              		.cfi_endproc
 2859              	.LFE87:
 2861              		.section	.text.NRF24_enableAckPayload,"ax",%progbits
 2862              		.align	1
 2863              		.global	NRF24_enableAckPayload
 2864              		.syntax unified
 2865              		.thumb
 2866              		.thumb_func
 2868              	NRF24_enableAckPayload:
 2869              	.LFB100:
 378:Drivers/Radio/Src/MY_NRF24.c ****     // Need to enable dynamic payload and Ack payload together
 2870              		.loc 1 378 35 is_stmt 1 view -0
 2871              		.cfi_startproc
 2872              		@ args = 0, pretend = 0, frame = 0
 2873              		@ frame_needed = 0, uses_anonymous_args = 0
 2874 0000 08B5     		push	{r3, lr}
 2875              	.LCFI69:
 2876              		.cfi_def_cfa_offset 8
 2877              		.cfi_offset 3, -8
 2878              		.cfi_offset 14, -4
 380:Drivers/Radio/Src/MY_NRF24.c ****                                           _BV(BIT_EN_ACK_PAY) |
 2879              		.loc 1 380 5 view .LVU625
 380:Drivers/Radio/Src/MY_NRF24.c ****                                           _BV(BIT_EN_ACK_PAY) |
 2880              		.loc 1 380 39 is_stmt 0 view .LVU626
 2881 0002 1D20     		movs	r0, #29
 2882 0004 FFF7FEFF 		bl	NRF24_read_register
 2883              	.LVL278:
 380:Drivers/Radio/Src/MY_NRF24.c ****                                           _BV(BIT_EN_ACK_PAY) |
 2884              		.loc 1 380 5 view .LVU627
 2885 0008 40F00601 		orr	r1, r0, #6
 2886 000c C9B2     		uxtb	r1, r1
 2887 000e 1D20     		movs	r0, #29
 2888 0010 FFF7FEFF 		bl	NRF24_write_register
 2889              	.LVL279:
 383:Drivers/Radio/Src/MY_NRF24.c ****         NRF24_ACTIVATE_cmd();
 2890              		.loc 1 383 5 is_stmt 1 view .LVU628
 383:Drivers/Radio/Src/MY_NRF24.c ****         NRF24_ACTIVATE_cmd();
 2891              		.loc 1 383 10 is_stmt 0 view .LVU629
 2892 0014 1D20     		movs	r0, #29
 2893 0016 FFF7FEFF 		bl	NRF24_read_register
 2894              	.LVL280:
 383:Drivers/Radio/Src/MY_NRF24.c ****         NRF24_ACTIVATE_cmd();
 2895              		.loc 1 383 8 view .LVU630
 2896 001a 48B1     		cbz	r0, .L191
 2897              	.L189:
 390:Drivers/Radio/Src/MY_NRF24.c ****                                         _BV(BIT_DPL_P1) | _BV(BIT_DPL_P0));
 2898              		.loc 1 390 5 is_stmt 1 view .LVU631
 390:Drivers/Radio/Src/MY_NRF24.c ****                                         _BV(BIT_DPL_P1) | _BV(BIT_DPL_P0));
 2899              		.loc 1 390 37 is_stmt 0 view .LVU632
 2900 001c 1C20     		movs	r0, #28
 2901 001e FFF7FEFF 		bl	NRF24_read_register
 2902              	.LVL281:
 390:Drivers/Radio/Src/MY_NRF24.c ****                                         _BV(BIT_DPL_P1) | _BV(BIT_DPL_P0));
 2903              		.loc 1 390 5 view .LVU633
ARM GAS  C:\Users\sangt\AppData\Local\Temp\cc6s9Yz8.s 			page 66


 2904 0022 40F00301 		orr	r1, r0, #3
 2905 0026 C9B2     		uxtb	r1, r1
 2906 0028 1C20     		movs	r0, #28
 2907 002a FFF7FEFF 		bl	NRF24_write_register
 2908              	.LVL282:
 392:Drivers/Radio/Src/MY_NRF24.c **** // 26. Enable dynamic payloads
 2909              		.loc 1 392 1 view .LVU634
 2910 002e 08BD     		pop	{r3, pc}
 2911              	.L191:
 384:Drivers/Radio/Src/MY_NRF24.c ****         NRF24_write_register(REG_FEATURE, NRF24_read_register(REG_FEATURE) |
 2912              		.loc 1 384 9 is_stmt 1 view .LVU635
 2913 0030 FFF7FEFF 		bl	NRF24_ACTIVATE_cmd
 2914              	.LVL283:
 385:Drivers/Radio/Src/MY_NRF24.c ****                                               _BV(BIT_EN_ACK_PAY) |
 2915              		.loc 1 385 9 view .LVU636
 385:Drivers/Radio/Src/MY_NRF24.c ****                                               _BV(BIT_EN_ACK_PAY) |
 2916              		.loc 1 385 43 is_stmt 0 view .LVU637
 2917 0034 1D20     		movs	r0, #29
 2918 0036 FFF7FEFF 		bl	NRF24_read_register
 2919              	.LVL284:
 385:Drivers/Radio/Src/MY_NRF24.c ****                                               _BV(BIT_EN_ACK_PAY) |
 2920              		.loc 1 385 9 view .LVU638
 2921 003a 40F00601 		orr	r1, r0, #6
 2922 003e C9B2     		uxtb	r1, r1
 2923 0040 1D20     		movs	r0, #29
 2924 0042 FFF7FEFF 		bl	NRF24_write_register
 2925              	.LVL285:
 2926 0046 E9E7     		b	.L189
 2927              		.cfi_endproc
 2928              	.LFE100:
 2930              		.section	.text.NRF24_enableDynamicPayloads,"ax",%progbits
 2931              		.align	1
 2932              		.global	NRF24_enableDynamicPayloads
 2933              		.syntax unified
 2934              		.thumb
 2935              		.thumb_func
 2937              	NRF24_enableDynamicPayloads:
 2938              	.LFB101:
 394:Drivers/Radio/Src/MY_NRF24.c ****     // Enable dynamic payload through FEATURE register
 2939              		.loc 1 394 40 is_stmt 1 view -0
 2940              		.cfi_startproc
 2941              		@ args = 0, pretend = 0, frame = 0
 2942              		@ frame_needed = 0, uses_anonymous_args = 0
 2943 0000 08B5     		push	{r3, lr}
 2944              	.LCFI70:
 2945              		.cfi_def_cfa_offset 8
 2946              		.cfi_offset 3, -8
 2947              		.cfi_offset 14, -4
 396:Drivers/Radio/Src/MY_NRF24.c ****                          NRF24_read_register(REG_FEATURE) | _BV(BIT_EN_DPL));
 2948              		.loc 1 396 5 view .LVU640
 397:Drivers/Radio/Src/MY_NRF24.c ****     if (!NRF24_read_register(REG_FEATURE)) {
 2949              		.loc 1 397 26 is_stmt 0 view .LVU641
 2950 0002 1D20     		movs	r0, #29
 2951 0004 FFF7FEFF 		bl	NRF24_read_register
 2952              	.LVL286:
 396:Drivers/Radio/Src/MY_NRF24.c ****                          NRF24_read_register(REG_FEATURE) | _BV(BIT_EN_DPL));
 2953              		.loc 1 396 5 view .LVU642
ARM GAS  C:\Users\sangt\AppData\Local\Temp\cc6s9Yz8.s 			page 67


 2954 0008 40F00401 		orr	r1, r0, #4
 2955 000c C9B2     		uxtb	r1, r1
 2956 000e 1D20     		movs	r0, #29
 2957 0010 FFF7FEFF 		bl	NRF24_write_register
 2958              	.LVL287:
 398:Drivers/Radio/Src/MY_NRF24.c ****         NRF24_ACTIVATE_cmd();
 2959              		.loc 1 398 5 is_stmt 1 view .LVU643
 398:Drivers/Radio/Src/MY_NRF24.c ****         NRF24_ACTIVATE_cmd();
 2960              		.loc 1 398 10 is_stmt 0 view .LVU644
 2961 0014 1D20     		movs	r0, #29
 2962 0016 FFF7FEFF 		bl	NRF24_read_register
 2963              	.LVL288:
 398:Drivers/Radio/Src/MY_NRF24.c ****         NRF24_ACTIVATE_cmd();
 2964              		.loc 1 398 8 view .LVU645
 2965 001a 60B1     		cbz	r0, .L195
 2966              	.L193:
 404:Drivers/Radio/Src/MY_NRF24.c ****                                         _BV(BIT_DPL_P5) | _BV(BIT_DPL_P4) |
 2967              		.loc 1 404 5 is_stmt 1 view .LVU646
 404:Drivers/Radio/Src/MY_NRF24.c ****                                         _BV(BIT_DPL_P5) | _BV(BIT_DPL_P4) |
 2968              		.loc 1 404 37 is_stmt 0 view .LVU647
 2969 001c 1C20     		movs	r0, #28
 2970 001e FFF7FEFF 		bl	NRF24_read_register
 2971              	.LVL289:
 404:Drivers/Radio/Src/MY_NRF24.c ****                                         _BV(BIT_DPL_P5) | _BV(BIT_DPL_P4) |
 2972              		.loc 1 404 5 view .LVU648
 2973 0022 40F03F01 		orr	r1, r0, #63
 2974 0026 C9B2     		uxtb	r1, r1
 2975 0028 1C20     		movs	r0, #28
 2976 002a FFF7FEFF 		bl	NRF24_write_register
 2977              	.LVL290:
 408:Drivers/Radio/Src/MY_NRF24.c **** }
 2978              		.loc 1 408 5 is_stmt 1 view .LVU649
 408:Drivers/Radio/Src/MY_NRF24.c **** }
 2979              		.loc 1 408 30 is_stmt 0 view .LVU650
 2980 002e 084B     		ldr	r3, .L196
 2981 0030 0122     		movs	r2, #1
 2982 0032 1A70     		strb	r2, [r3]
 409:Drivers/Radio/Src/MY_NRF24.c **** void NRF24_disableDynamicPayloads(void) {
 2983              		.loc 1 409 1 view .LVU651
 2984 0034 08BD     		pop	{r3, pc}
 2985              	.L195:
 399:Drivers/Radio/Src/MY_NRF24.c ****         NRF24_write_register(
 2986              		.loc 1 399 9 is_stmt 1 view .LVU652
 2987 0036 FFF7FEFF 		bl	NRF24_ACTIVATE_cmd
 2988              	.LVL291:
 400:Drivers/Radio/Src/MY_NRF24.c ****             REG_FEATURE, NRF24_read_register(REG_FEATURE) | _BV(BIT_EN_DPL));
 2989              		.loc 1 400 9 view .LVU653
 401:Drivers/Radio/Src/MY_NRF24.c ****     }
 2990              		.loc 1 401 26 is_stmt 0 view .LVU654
 2991 003a 1D20     		movs	r0, #29
 2992 003c FFF7FEFF 		bl	NRF24_read_register
 2993              	.LVL292:
 400:Drivers/Radio/Src/MY_NRF24.c ****             REG_FEATURE, NRF24_read_register(REG_FEATURE) | _BV(BIT_EN_DPL));
 2994              		.loc 1 400 9 view .LVU655
 2995 0040 40F00401 		orr	r1, r0, #4
 2996 0044 C9B2     		uxtb	r1, r1
 2997 0046 1D20     		movs	r0, #29
ARM GAS  C:\Users\sangt\AppData\Local\Temp\cc6s9Yz8.s 			page 68


 2998 0048 FFF7FEFF 		bl	NRF24_write_register
 2999              	.LVL293:
 3000 004c E6E7     		b	.L193
 3001              	.L197:
 3002 004e 00BF     		.align	2
 3003              	.L196:
 3004 0050 00000000 		.word	.LANCHOR8
 3005              		.cfi_endproc
 3006              	.LFE101:
 3008              		.section	.text.NRF24_GetAckPayloadSize,"ax",%progbits
 3009              		.align	1
 3010              		.global	NRF24_GetAckPayloadSize
 3011              		.syntax unified
 3012              		.thumb
 3013              		.thumb_func
 3015              	NRF24_GetAckPayloadSize:
 3016              	.LFB124:
 665:Drivers/Radio/Src/MY_NRF24.c **** // 48. Get AckPayload Size
 666:Drivers/Radio/Src/MY_NRF24.c **** uint8_t NRF24_GetAckPayloadSize(void) { return ack_payload_length; }
 3017              		.loc 1 666 39 is_stmt 1 view -0
 3018              		.cfi_startproc
 3019              		@ args = 0, pretend = 0, frame = 0
 3020              		@ frame_needed = 0, uses_anonymous_args = 0
 3021              		@ link register save eliminated.
 3022              		.loc 1 666 41 view .LVU657
 3023              		.loc 1 666 68 is_stmt 0 view .LVU658
 3024 0000 014B     		ldr	r3, .L199
 3025 0002 1878     		ldrb	r0, [r3]	@ zero_extendqisi2
 3026 0004 7047     		bx	lr
 3027              	.L200:
 3028 0006 00BF     		.align	2
 3029              	.L199:
 3030 0008 00000000 		.word	.LANCHOR11
 3031              		.cfi_endproc
 3032              	.LFE124:
 3034              		.section	.rodata.printRadioSettings.str1.4,"aMS",%progbits,1
 3035              		.align	2
 3036              	.LC2:
 3037 0000 0D0A2A2A 		.ascii	"\015\012*******************************************"
 3037      2A2A2A2A 
 3037      2A2A2A2A 
 3037      2A2A2A2A 
 3037      2A2A2A2A 
 3038 002d 2A2A2A0D 		.ascii	"***\015\012\000"
 3038      0A00
 3039 0033 00       		.align	2
 3040              	.LC3:
 3041 0034 4352433A 		.ascii	"CRC:\015\012\011\011Enabled, 2 Bytes \015\012\000"
 3041      0D0A0909 
 3041      456E6162 
 3041      6C65642C 
 3041      20322042 
 3042              		.align	2
 3043              	.LC4:
 3044 0050 4352433A 		.ascii	"CRC:\015\012\011\011Enabled, 1 Byte \015\012\000"
 3044      0D0A0909 
 3044      456E6162 
ARM GAS  C:\Users\sangt\AppData\Local\Temp\cc6s9Yz8.s 			page 69


 3044      6C65642C 
 3044      20312042 
 3045 006b 00       		.align	2
 3046              	.LC5:
 3047 006c 4352433A 		.ascii	"CRC:\015\012\011\011Disabled \015\012\000"
 3047      0D0A0909 
 3047      44697361 
 3047      626C6564 
 3047      200D0A00 
 3048              		.align	2
 3049              	.LC6:
 3050 0080 454E4141 		.ascii	"ENAA:\015\012\011\011P0:\011%d\015\012\011\011P1:\011"
 3050      3A0D0A09 
 3050      0950303A 
 3050      0925640D 
 3050      0A090950 
 3051 0097 25640D0A 		.ascii	"%d\015\012\011\011P2:\011%d\015\012\011\011P3:\011%"
 3051      09095032 
 3051      3A092564 
 3051      0D0A0909 
 3051      50333A09 
 3052 00ac 640D0A09 		.ascii	"d\015\012\011\011P4:\011%d\015\012\011\011P5:\011%d"
 3052      0950343A 
 3052      0925640D 
 3052      0A090950 
 3052      353A0925 
 3053 00c1 0D0A00   		.ascii	"\015\012\000"
 3054              		.align	2
 3055              	.LC7:
 3056 00c4 454E5F52 		.ascii	"EN_RXADDR:\015\012\011\011P0:\011%d\015\012\011\011"
 3056      58414444 
 3056      523A0D0A 
 3056      09095030 
 3056      3A092564 
 3057 00dc 50313A09 		.ascii	"P1:\011%d\015\012\011\011P2:\011%d\015\012\011\011P"
 3057      25640D0A 
 3057      09095032 
 3057      3A092564 
 3057      0D0A0909 
 3058 00f1 333A0925 		.ascii	"3:\011%d\015\012\011\011P4:\011%d\015\012\011\011P5"
 3058      640D0A09 
 3058      0950343A 
 3058      0925640D 
 3058      0A090950 
 3059 0106 3A092564 		.ascii	":\011%d\015\012\000"
 3059      0D0A00
 3060 010d 000000   		.align	2
 3061              	.LC8:
 3062 0110 53455455 		.ascii	"SETUP_AW:\015\012\011\011%d bytes \015\012\000"
 3062      505F4157 
 3062      3A0D0A09 
 3062      09256420 
 3062      62797465 
 3063 0129 000000   		.align	2
 3064              	.LC9:
 3065 012c 52465F43 		.ascii	"RF_CH:\015\012\011\011%d CH \015\012\000"
 3065      483A0D0A 
ARM GAS  C:\Users\sangt\AppData\Local\Temp\cc6s9Yz8.s 			page 70


 3065      09092564 
 3065      20434820 
 3065      0D0A00
 3066 013f 00       		.align	2
 3067              	.LC10:
 3068 0140 44617461 		.ascii	"Data Rate:\015\012\011\0112Mbps \015\012\000"
 3068      20526174 
 3068      653A0D0A 
 3068      0909324D 
 3068      62707320 
 3069 0157 00       		.align	2
 3070              	.LC11:
 3071 0158 44617461 		.ascii	"Data Rate:\015\012\011\0111Mbps \015\012\000"
 3071      20526174 
 3071      653A0D0A 
 3071      0909314D 
 3071      62707320 
 3072 016f 00       		.align	2
 3073              	.LC12:
 3074 0170 52465F50 		.ascii	"RF_PWR:\015\012\011\011-18dB \015\012\000"
 3074      57523A0D 
 3074      0A09092D 
 3074      31386442 
 3074      200D0A00 
 3075              		.align	2
 3076              	.LC13:
 3077 0184 52465F50 		.ascii	"RF_PWR:\015\012\011\011-12dB \015\012\000"
 3077      57523A0D 
 3077      0A09092D 
 3077      31326442 
 3077      200D0A00 
 3078              		.align	2
 3079              	.LC14:
 3080 0198 52465F50 		.ascii	"RF_PWR:\015\012\011\011-6dB \015\012\000"
 3080      57523A0D 
 3080      0A09092D 
 3080      36644220 
 3080      0D0A00
 3081 01ab 00       		.align	2
 3082              	.LC15:
 3083 01ac 52465F50 		.ascii	"RF_PWR:\015\012\011\0110dB \015\012\000"
 3083      57523A0D 
 3083      0A090930 
 3083      6442200D 
 3083      0A00
 3084 01be 0000     		.align	2
 3085              	.LC16:
 3086 01c0 52585F50 		.ascii	"RX_Pipe0 Addrs:\015\012\011\011%02X,%02X,%02X,%02X,"
 3086      69706530 
 3086      20416464 
 3086      72733A0D 
 3086      0A090925 
 3087 01e7 25303258 		.ascii	"%02X  \015\012\000"
 3087      20200D0A 
 3087      00
 3088              		.align	2
 3089              	.LC17:
ARM GAS  C:\Users\sangt\AppData\Local\Temp\cc6s9Yz8.s 			page 71


 3090 01f0 52585F50 		.ascii	"RX_Pipe1 Addrs:\015\012\011\011%02X,%02X,%02X,%02X,"
 3090      69706531 
 3090      20416464 
 3090      72733A0D 
 3090      0A090925 
 3091 0217 25303258 		.ascii	"%02X  \015\012\000"
 3091      20200D0A 
 3091      00
 3092              		.align	2
 3093              	.LC18:
 3094 0220 52585F50 		.ascii	"RX_Pipe2 Addrs:\015\012\011\011xx,xx,xx,xx,%02X  \015"
 3094      69706532 
 3094      20416464 
 3094      72733A0D 
 3094      0A090978 
 3095 0246 0A00     		.ascii	"\012\000"
 3096              		.align	2
 3097              	.LC19:
 3098 0248 52585F50 		.ascii	"RX_Pipe3 Addrs:\015\012\011\011xx,xx,xx,xx,%02X  \015"
 3098      69706533 
 3098      20416464 
 3098      72733A0D 
 3098      0A090978 
 3099 026e 0A00     		.ascii	"\012\000"
 3100              		.align	2
 3101              	.LC20:
 3102 0270 52585F50 		.ascii	"RX_Pipe4 Addrs:\015\012\011\011xx,xx,xx,xx,%02X  \015"
 3102      69706534 
 3102      20416464 
 3102      72733A0D 
 3102      0A090978 
 3103 0296 0A00     		.ascii	"\012\000"
 3104              		.align	2
 3105              	.LC21:
 3106 0298 52585F50 		.ascii	"RX_Pipe5 Addrs:\015\012\011\011xx,xx,xx,xx,%02X  \015"
 3106      69706535 
 3106      20416464 
 3106      72733A0D 
 3106      0A090978 
 3107 02be 0A00     		.ascii	"\012\000"
 3108              		.align	2
 3109              	.LC22:
 3110 02c0 54582041 		.ascii	"TX Addrs:\015\012\011\011%02X,%02X,%02X,%02X,%02X  "
 3110      64647273 
 3110      3A0D0A09 
 3110      09253032 
 3110      582C2530 
 3111 02e7 0D0A00   		.ascii	"\015\012\000"
 3112 02ea 0000     		.align	2
 3113              	.LC23:
 3114 02ec 52585F50 		.ascii	"RX_PW_P0:\015\012\011\011%d bytes \015\012\000"
 3114      575F5030 
 3114      3A0D0A09 
 3114      09256420 
 3114      62797465 
 3115 0305 000000   		.align	2
 3116              	.LC24:
ARM GAS  C:\Users\sangt\AppData\Local\Temp\cc6s9Yz8.s 			page 72


 3117 0308 52585F50 		.ascii	"RX_PW_P1:\015\012\011\011%d bytes \015\012\000"
 3117      575F5031 
 3117      3A0D0A09 
 3117      09256420 
 3117      62797465 
 3118 0321 000000   		.align	2
 3119              	.LC25:
 3120 0324 52585F50 		.ascii	"RX_PW_P2:\015\012\011\011%d bytes \015\012\000"
 3120      575F5032 
 3120      3A0D0A09 
 3120      09256420 
 3120      62797465 
 3121 033d 000000   		.align	2
 3122              	.LC26:
 3123 0340 52585F50 		.ascii	"RX_PW_P3:\015\012\011\011%d bytes \015\012\000"
 3123      575F5033 
 3123      3A0D0A09 
 3123      09256420 
 3123      62797465 
 3124 0359 000000   		.align	2
 3125              	.LC27:
 3126 035c 52585F50 		.ascii	"RX_PW_P4:\015\012\011\011%d bytes \015\012\000"
 3126      575F5034 
 3126      3A0D0A09 
 3126      09256420 
 3126      62797465 
 3127 0375 000000   		.align	2
 3128              	.LC28:
 3129 0378 52585F50 		.ascii	"RX_PW_P5:\015\012\011\011%d bytes \015\012\000"
 3129      575F5035 
 3129      3A0D0A09 
 3129      09256420 
 3129      62797465 
 3130 0391 000000   		.align	2
 3131              	.LC29:
 3132 0394 44594E50 		.ascii	"DYNPD_pipe:\015\012\011\011P0:\011%d\015\012\011\011"
 3132      445F7069 
 3132      70653A0D 
 3132      0A090950 
 3132      303A0925 
 3133 03ad 50313A09 		.ascii	"P1:\011%d\015\012\011\011P2:\011%d\015\012\011\011P"
 3133      25640D0A 
 3133      09095032 
 3133      3A092564 
 3133      0D0A0909 
 3134 03c2 333A0925 		.ascii	"3:\011%d\015\012\011\011P4:\011%d\015\012\011\011P5"
 3134      640D0A09 
 3134      0950343A 
 3134      0925640D 
 3134      0A090950 
 3135 03d7 3A092564 		.ascii	":\011%d\015\012\000"
 3135      0D0A00
 3136 03de 0000     		.align	2
 3137              	.LC30:
 3138 03e0 454E5F44 		.ascii	"EN_DPL:\015\012\011\011Enabled \015\012\000"
 3138      504C3A0D 
 3138      0A090945 
ARM GAS  C:\Users\sangt\AppData\Local\Temp\cc6s9Yz8.s 			page 73


 3138      6E61626C 
 3138      6564200D 
 3139 03f6 0000     		.align	2
 3140              	.LC31:
 3141 03f8 454E5F44 		.ascii	"EN_DPL:\015\012\011\011Disabled \015\012\000"
 3141      504C3A0D 
 3141      0A090944 
 3141      69736162 
 3141      6C656420 
 3142 040f 00       		.align	2
 3143              	.LC32:
 3144 0410 454E5F41 		.ascii	"EN_ACK_PAY:\015\012\011\011Enabled \015\012\000"
 3144      434B5F50 
 3144      41593A0D 
 3144      0A090945 
 3144      6E61626C 
 3145 042a 0000     		.align	2
 3146              	.LC33:
 3147 042c 454E5F41 		.ascii	"EN_ACK_PAY:\015\012\011\011Disabled \015\012\000"
 3147      434B5F50 
 3147      41593A0D 
 3147      0A090944 
 3147      69736162 
 3148              		.section	.text.printRadioSettings,"ax",%progbits
 3149              		.align	1
 3150              		.global	printRadioSettings
 3151              		.syntax unified
 3152              		.thumb
 3153              		.thumb_func
 3155              	printRadioSettings:
 3156              	.LFB125:
 667:Drivers/Radio/Src/MY_NRF24.c **** 
 668:Drivers/Radio/Src/MY_NRF24.c **** void printRadioSettings(void) {
 3157              		.loc 1 668 31 is_stmt 1 view -0
 3158              		.cfi_startproc
 3159              		@ args = 0, pretend = 0, frame = 112
 3160              		@ frame_needed = 0, uses_anonymous_args = 0
 3161 0000 70B5     		push	{r4, r5, r6, lr}
 3162              	.LCFI71:
 3163              		.cfi_def_cfa_offset 16
 3164              		.cfi_offset 4, -16
 3165              		.cfi_offset 5, -12
 3166              		.cfi_offset 6, -8
 3167              		.cfi_offset 14, -4
 3168 0002 A0B0     		sub	sp, sp, #128
 3169              	.LCFI72:
 3170              		.cfi_def_cfa_offset 144
 669:Drivers/Radio/Src/MY_NRF24.c ****     uint8_t reg8Val;
 3171              		.loc 1 669 5 view .LVU660
 670:Drivers/Radio/Src/MY_NRF24.c ****     char uartTxBuf[100];
 3172              		.loc 1 670 5 view .LVU661
 671:Drivers/Radio/Src/MY_NRF24.c ****     sprintf(uartTxBuf,
 3173              		.loc 1 671 5 view .LVU662
 3174 0004 0DF11C0C 		add	ip, sp, #28
 3175 0008 C44C     		ldr	r4, .L220
 3176 000a 0FCC     		ldmia	r4!, {r0, r1, r2, r3}
 3177 000c ACE80F00 		stmia	ip!, {r0, r1, r2, r3}
ARM GAS  C:\Users\sangt\AppData\Local\Temp\cc6s9Yz8.s 			page 74


 3178 0010 0FCC     		ldmia	r4!, {r0, r1, r2, r3}
 3179 0012 ACE80F00 		stmia	ip!, {r0, r1, r2, r3}
 3180 0016 0FCC     		ldmia	r4!, {r0, r1, r2, r3}
 3181 0018 ACE80F00 		stmia	ip!, {r0, r1, r2, r3}
 3182 001c 2368     		ldr	r3, [r4]
 3183 001e 2CF8023B 		strh	r3, [ip], #2	@ movhi
 3184 0022 1B0C     		lsrs	r3, r3, #16
 3185 0024 8CF80030 		strb	r3, [ip]
 672:Drivers/Radio/Src/MY_NRF24.c ****             "\r\n**********************************************\r\n");
 673:Drivers/Radio/Src/MY_NRF24.c ****     HAL_UART_Transmit(&nrf24_huart, (uint8_t *)uartTxBuf, strlen(uartTxBuf),
 3186              		.loc 1 673 5 view .LVU663
 3187              		.loc 1 673 59 is_stmt 0 view .LVU664
 3188 0028 07A8     		add	r0, sp, #28
 3189 002a FFF7FEFF 		bl	strlen
 3190              	.LVL294:
 3191              		.loc 1 673 5 view .LVU665
 3192 002e 0A23     		movs	r3, #10
 3193 0030 82B2     		uxth	r2, r0
 3194 0032 07A9     		add	r1, sp, #28
 3195 0034 BA48     		ldr	r0, .L220+4
 3196 0036 FFF7FEFF 		bl	HAL_UART_Transmit
 3197              	.LVL295:
 674:Drivers/Radio/Src/MY_NRF24.c ****                       10);
 675:Drivers/Radio/Src/MY_NRF24.c ****     // a) Get CRC settings - Config Register
 676:Drivers/Radio/Src/MY_NRF24.c ****     reg8Val = NRF24_read_register(0x00);
 3198              		.loc 1 676 5 is_stmt 1 view .LVU666
 3199              		.loc 1 676 15 is_stmt 0 view .LVU667
 3200 003a 0020     		movs	r0, #0
 3201 003c FFF7FEFF 		bl	NRF24_read_register
 3202              	.LVL296:
 677:Drivers/Radio/Src/MY_NRF24.c ****     if (reg8Val & (1 << 3)) {
 3203              		.loc 1 677 5 is_stmt 1 view .LVU668
 3204              		.loc 1 677 8 is_stmt 0 view .LVU669
 3205 0040 10F0080F 		tst	r0, #8
 3206 0044 00F06782 		beq	.L202
 678:Drivers/Radio/Src/MY_NRF24.c ****         if (reg8Val & (1 << 2))
 3207              		.loc 1 678 9 is_stmt 1 view .LVU670
 3208              		.loc 1 678 12 is_stmt 0 view .LVU671
 3209 0048 10F0040F 		tst	r0, #4
 3210 004c 00F05782 		beq	.L203
 679:Drivers/Radio/Src/MY_NRF24.c ****             sprintf(uartTxBuf, "CRC:\r\n		Enabled, 2 Bytes \r\n");
 3211              		.loc 1 679 13 is_stmt 1 view .LVU672
 3212 0050 07AC     		add	r4, sp, #28
 3213 0052 B44D     		ldr	r5, .L220+8
 3214 0054 0FCD     		ldmia	r5!, {r0, r1, r2, r3}
 3215              	.LVL297:
 3216              		.loc 1 679 13 is_stmt 0 view .LVU673
 3217 0056 0FC4     		stmia	r4!, {r0, r1, r2, r3}
 3218 0058 95E80700 		ldm	r5, {r0, r1, r2}
 3219 005c 84E80700 		stm	r4, {r0, r1, r2}
 3220              	.L204:
 680:Drivers/Radio/Src/MY_NRF24.c ****         else
 681:Drivers/Radio/Src/MY_NRF24.c ****             sprintf(uartTxBuf, "CRC:\r\n		Enabled, 1 Byte \r\n");
 682:Drivers/Radio/Src/MY_NRF24.c ****     } else {
 683:Drivers/Radio/Src/MY_NRF24.c ****         sprintf(uartTxBuf, "CRC:\r\n		Disabled \r\n");
 684:Drivers/Radio/Src/MY_NRF24.c ****     }
 685:Drivers/Radio/Src/MY_NRF24.c ****     HAL_UART_Transmit(&nrf24_huart, (uint8_t *)uartTxBuf, strlen(uartTxBuf),
ARM GAS  C:\Users\sangt\AppData\Local\Temp\cc6s9Yz8.s 			page 75


 3221              		.loc 1 685 5 is_stmt 1 view .LVU674
 3222              		.loc 1 685 59 is_stmt 0 view .LVU675
 3223 0060 07A8     		add	r0, sp, #28
 3224 0062 FFF7FEFF 		bl	strlen
 3225              	.LVL298:
 3226              		.loc 1 685 5 view .LVU676
 3227 0066 AE4C     		ldr	r4, .L220+4
 3228 0068 0A23     		movs	r3, #10
 3229 006a 82B2     		uxth	r2, r0
 3230 006c 07A9     		add	r1, sp, #28
 3231 006e 2046     		mov	r0, r4
 3232 0070 FFF7FEFF 		bl	HAL_UART_Transmit
 3233              	.LVL299:
 686:Drivers/Radio/Src/MY_NRF24.c ****                       10);
 687:Drivers/Radio/Src/MY_NRF24.c ****     // b) AutoAck on pipes
 688:Drivers/Radio/Src/MY_NRF24.c ****     reg8Val = NRF24_read_register(0x01);
 3234              		.loc 1 688 5 is_stmt 1 view .LVU677
 3235              		.loc 1 688 15 is_stmt 0 view .LVU678
 3236 0074 0120     		movs	r0, #1
 3237 0076 FFF7FEFF 		bl	NRF24_read_register
 3238              	.LVL300:
 689:Drivers/Radio/Src/MY_NRF24.c ****     sprintf(uartTxBuf,
 3239              		.loc 1 689 5 is_stmt 1 view .LVU679
 3240 007a C0F34013 		ubfx	r3, r0, #5, #1
 3241 007e 0393     		str	r3, [sp, #12]
 3242 0080 C0F30013 		ubfx	r3, r0, #4, #1
 3243 0084 0293     		str	r3, [sp, #8]
 3244 0086 C0F3C003 		ubfx	r3, r0, #3, #1
 3245 008a 0193     		str	r3, [sp, #4]
 3246 008c C0F38003 		ubfx	r3, r0, #2, #1
 3247 0090 0093     		str	r3, [sp]
 3248 0092 C0F34003 		ubfx	r3, r0, #1, #1
 3249 0096 00F00102 		and	r2, r0, #1
 3250 009a A349     		ldr	r1, .L220+12
 3251 009c 07A8     		add	r0, sp, #28
 3252              	.LVL301:
 3253              		.loc 1 689 5 is_stmt 0 view .LVU680
 3254 009e FFF7FEFF 		bl	sprintf
 3255              	.LVL302:
 690:Drivers/Radio/Src/MY_NRF24.c ****             "ENAA:\r\n		P0:	%d\r\n		P1:	%d\r\n	"
 691:Drivers/Radio/Src/MY_NRF24.c ****             "	P2:	%d\r\n		P3:	%d\r\n		P4:	"
 692:Drivers/Radio/Src/MY_NRF24.c ****             "%d\r\n		P5:	%d\r\n",
 693:Drivers/Radio/Src/MY_NRF24.c ****             _BOOL(reg8Val & (1 << 0)), _BOOL(reg8Val & (1 << 1)),
 694:Drivers/Radio/Src/MY_NRF24.c ****             _BOOL(reg8Val & (1 << 2)), _BOOL(reg8Val & (1 << 3)),
 695:Drivers/Radio/Src/MY_NRF24.c ****             _BOOL(reg8Val & (1 << 4)), _BOOL(reg8Val & (1 << 5)));
 696:Drivers/Radio/Src/MY_NRF24.c ****     HAL_UART_Transmit(&nrf24_huart, (uint8_t *)uartTxBuf, strlen(uartTxBuf),
 3256              		.loc 1 696 5 is_stmt 1 view .LVU681
 3257              		.loc 1 696 59 is_stmt 0 view .LVU682
 3258 00a2 07A8     		add	r0, sp, #28
 3259 00a4 FFF7FEFF 		bl	strlen
 3260              	.LVL303:
 3261              		.loc 1 696 5 view .LVU683
 3262 00a8 0A23     		movs	r3, #10
 3263 00aa 82B2     		uxth	r2, r0
 3264 00ac 07A9     		add	r1, sp, #28
 3265 00ae 2046     		mov	r0, r4
 3266 00b0 FFF7FEFF 		bl	HAL_UART_Transmit
ARM GAS  C:\Users\sangt\AppData\Local\Temp\cc6s9Yz8.s 			page 76


 3267              	.LVL304:
 697:Drivers/Radio/Src/MY_NRF24.c ****                       10);
 698:Drivers/Radio/Src/MY_NRF24.c ****     // c) Enabled Rx addresses
 699:Drivers/Radio/Src/MY_NRF24.c ****     reg8Val = NRF24_read_register(0x02);
 3268              		.loc 1 699 5 is_stmt 1 view .LVU684
 3269              		.loc 1 699 15 is_stmt 0 view .LVU685
 3270 00b4 0220     		movs	r0, #2
 3271 00b6 FFF7FEFF 		bl	NRF24_read_register
 3272              	.LVL305:
 700:Drivers/Radio/Src/MY_NRF24.c ****     sprintf(uartTxBuf,
 3273              		.loc 1 700 5 is_stmt 1 view .LVU686
 3274 00ba C0F34013 		ubfx	r3, r0, #5, #1
 3275 00be 0393     		str	r3, [sp, #12]
 3276 00c0 C0F30013 		ubfx	r3, r0, #4, #1
 3277 00c4 0293     		str	r3, [sp, #8]
 3278 00c6 C0F3C003 		ubfx	r3, r0, #3, #1
 3279 00ca 0193     		str	r3, [sp, #4]
 3280 00cc C0F38003 		ubfx	r3, r0, #2, #1
 3281 00d0 0093     		str	r3, [sp]
 3282 00d2 C0F34003 		ubfx	r3, r0, #1, #1
 3283 00d6 00F00102 		and	r2, r0, #1
 3284 00da 9449     		ldr	r1, .L220+16
 3285 00dc 07A8     		add	r0, sp, #28
 3286              	.LVL306:
 3287              		.loc 1 700 5 is_stmt 0 view .LVU687
 3288 00de FFF7FEFF 		bl	sprintf
 3289              	.LVL307:
 701:Drivers/Radio/Src/MY_NRF24.c ****             "EN_RXADDR:\r\n		P0:	%d\r\n		P1:	"
 702:Drivers/Radio/Src/MY_NRF24.c ****             "%d\r\n		P2:	%d\r\n		P3:	%d\r\n	"
 703:Drivers/Radio/Src/MY_NRF24.c ****             "	P4:	%d\r\n		P5:	%d\r\n",
 704:Drivers/Radio/Src/MY_NRF24.c ****             _BOOL(reg8Val & (1 << 0)), _BOOL(reg8Val & (1 << 1)),
 705:Drivers/Radio/Src/MY_NRF24.c ****             _BOOL(reg8Val & (1 << 2)), _BOOL(reg8Val & (1 << 3)),
 706:Drivers/Radio/Src/MY_NRF24.c ****             _BOOL(reg8Val & (1 << 4)), _BOOL(reg8Val & (1 << 5)));
 707:Drivers/Radio/Src/MY_NRF24.c ****     HAL_UART_Transmit(&nrf24_huart, (uint8_t *)uartTxBuf, strlen(uartTxBuf),
 3290              		.loc 1 707 5 is_stmt 1 view .LVU688
 3291              		.loc 1 707 59 is_stmt 0 view .LVU689
 3292 00e2 07A8     		add	r0, sp, #28
 3293 00e4 FFF7FEFF 		bl	strlen
 3294              	.LVL308:
 3295              		.loc 1 707 5 view .LVU690
 3296 00e8 0A23     		movs	r3, #10
 3297 00ea 82B2     		uxth	r2, r0
 3298 00ec 07A9     		add	r1, sp, #28
 3299 00ee 2046     		mov	r0, r4
 3300 00f0 FFF7FEFF 		bl	HAL_UART_Transmit
 3301              	.LVL309:
 708:Drivers/Radio/Src/MY_NRF24.c ****                       10);
 709:Drivers/Radio/Src/MY_NRF24.c ****     // d) Address width
 710:Drivers/Radio/Src/MY_NRF24.c ****     reg8Val = NRF24_read_register(0x03) & 0x03;
 3302              		.loc 1 710 5 is_stmt 1 view .LVU691
 3303              		.loc 1 710 15 is_stmt 0 view .LVU692
 3304 00f4 0320     		movs	r0, #3
 3305 00f6 FFF7FEFF 		bl	NRF24_read_register
 3306              	.LVL310:
 3307              		.loc 1 710 13 view .LVU693
 3308 00fa 00F00302 		and	r2, r0, #3
 3309              	.LVL311:
ARM GAS  C:\Users\sangt\AppData\Local\Temp\cc6s9Yz8.s 			page 77


 711:Drivers/Radio/Src/MY_NRF24.c ****     reg8Val += 2;
 3310              		.loc 1 711 5 is_stmt 1 view .LVU694
 712:Drivers/Radio/Src/MY_NRF24.c ****     sprintf(uartTxBuf, "SETUP_AW:\r\n		%d bytes \r\n", reg8Val);
 3311              		.loc 1 712 5 view .LVU695
 3312 00fe 0232     		adds	r2, r2, #2
 3313              	.LVL312:
 3314              		.loc 1 712 5 is_stmt 0 view .LVU696
 3315 0100 8B49     		ldr	r1, .L220+20
 3316 0102 07A8     		add	r0, sp, #28
 3317 0104 FFF7FEFF 		bl	sprintf
 3318              	.LVL313:
 713:Drivers/Radio/Src/MY_NRF24.c ****     HAL_UART_Transmit(&nrf24_huart, (uint8_t *)uartTxBuf, strlen(uartTxBuf),
 3319              		.loc 1 713 5 is_stmt 1 view .LVU697
 3320              		.loc 1 713 59 is_stmt 0 view .LVU698
 3321 0108 07A8     		add	r0, sp, #28
 3322 010a FFF7FEFF 		bl	strlen
 3323              	.LVL314:
 3324              		.loc 1 713 5 view .LVU699
 3325 010e 0A23     		movs	r3, #10
 3326 0110 82B2     		uxth	r2, r0
 3327 0112 07A9     		add	r1, sp, #28
 3328 0114 2046     		mov	r0, r4
 3329 0116 FFF7FEFF 		bl	HAL_UART_Transmit
 3330              	.LVL315:
 714:Drivers/Radio/Src/MY_NRF24.c ****                       10);
 715:Drivers/Radio/Src/MY_NRF24.c ****     // e) RF channel
 716:Drivers/Radio/Src/MY_NRF24.c ****     reg8Val = NRF24_read_register(0x05);
 3331              		.loc 1 716 5 is_stmt 1 view .LVU700
 3332              		.loc 1 716 15 is_stmt 0 view .LVU701
 3333 011a 0520     		movs	r0, #5
 3334 011c FFF7FEFF 		bl	NRF24_read_register
 3335              	.LVL316:
 717:Drivers/Radio/Src/MY_NRF24.c ****     sprintf(uartTxBuf, "RF_CH:\r\n		%d CH \r\n", reg8Val & 0x7F);
 3336              		.loc 1 717 5 is_stmt 1 view .LVU702
 3337 0120 00F07F02 		and	r2, r0, #127
 3338 0124 8349     		ldr	r1, .L220+24
 3339 0126 07A8     		add	r0, sp, #28
 3340              	.LVL317:
 3341              		.loc 1 717 5 is_stmt 0 view .LVU703
 3342 0128 FFF7FEFF 		bl	sprintf
 3343              	.LVL318:
 718:Drivers/Radio/Src/MY_NRF24.c ****     HAL_UART_Transmit(&nrf24_huart, (uint8_t *)uartTxBuf, strlen(uartTxBuf),
 3344              		.loc 1 718 5 is_stmt 1 view .LVU704
 3345              		.loc 1 718 59 is_stmt 0 view .LVU705
 3346 012c 07A8     		add	r0, sp, #28
 3347 012e FFF7FEFF 		bl	strlen
 3348              	.LVL319:
 3349              		.loc 1 718 5 view .LVU706
 3350 0132 0A23     		movs	r3, #10
 3351 0134 82B2     		uxth	r2, r0
 3352 0136 07A9     		add	r1, sp, #28
 3353 0138 2046     		mov	r0, r4
 3354 013a FFF7FEFF 		bl	HAL_UART_Transmit
 3355              	.LVL320:
 719:Drivers/Radio/Src/MY_NRF24.c ****                       10);
 720:Drivers/Radio/Src/MY_NRF24.c ****     // f) Data rate & RF_PWR
 721:Drivers/Radio/Src/MY_NRF24.c ****     reg8Val = NRF24_read_register(0x06);
ARM GAS  C:\Users\sangt\AppData\Local\Temp\cc6s9Yz8.s 			page 78


 3356              		.loc 1 721 5 is_stmt 1 view .LVU707
 3357              		.loc 1 721 15 is_stmt 0 view .LVU708
 3358 013e 0620     		movs	r0, #6
 3359 0140 FFF7FEFF 		bl	NRF24_read_register
 3360              	.LVL321:
 3361 0144 0446     		mov	r4, r0
 3362              	.LVL322:
 722:Drivers/Radio/Src/MY_NRF24.c ****     if (reg8Val & (1 << 3))
 3363              		.loc 1 722 5 is_stmt 1 view .LVU709
 3364              		.loc 1 722 8 is_stmt 0 view .LVU710
 3365 0146 10F0080F 		tst	r0, #8
 3366 014a 00F0EB81 		beq	.L205
 723:Drivers/Radio/Src/MY_NRF24.c ****         sprintf(uartTxBuf, "Data Rate:\r\n		2Mbps \r\n");
 3367              		.loc 1 723 9 is_stmt 1 view .LVU711
 3368 014e 0DF11C0C 		add	ip, sp, #28
 3369 0152 794D     		ldr	r5, .L220+28
 3370 0154 0FCD     		ldmia	r5!, {r0, r1, r2, r3}
 3371              	.LVL323:
 3372              		.loc 1 723 9 is_stmt 0 view .LVU712
 3373 0156 ACE80F00 		stmia	ip!, {r0, r1, r2, r3}
 3374 015a 95E80300 		ldm	r5, {r0, r1}
 3375 015e 4CF8040B 		str	r0, [ip], #4
 3376 0162 2CF8021B 		strh	r1, [ip], #2	@ movhi
 3377 0166 090C     		lsrs	r1, r1, #16
 3378 0168 8CF80010 		strb	r1, [ip]
 3379              	.L206:
 724:Drivers/Radio/Src/MY_NRF24.c ****     else
 725:Drivers/Radio/Src/MY_NRF24.c ****         sprintf(uartTxBuf, "Data Rate:\r\n		1Mbps \r\n");
 726:Drivers/Radio/Src/MY_NRF24.c ****     HAL_UART_Transmit(&nrf24_huart, (uint8_t *)uartTxBuf, strlen(uartTxBuf),
 3380              		.loc 1 726 5 is_stmt 1 view .LVU713
 3381              		.loc 1 726 59 is_stmt 0 view .LVU714
 3382 016c 07A8     		add	r0, sp, #28
 3383 016e FFF7FEFF 		bl	strlen
 3384              	.LVL324:
 3385              		.loc 1 726 5 view .LVU715
 3386 0172 0A23     		movs	r3, #10
 3387 0174 82B2     		uxth	r2, r0
 3388 0176 07A9     		add	r1, sp, #28
 3389 0178 6948     		ldr	r0, .L220+4
 3390 017a FFF7FEFF 		bl	HAL_UART_Transmit
 3391              	.LVL325:
 727:Drivers/Radio/Src/MY_NRF24.c ****                       10);
 728:Drivers/Radio/Src/MY_NRF24.c ****     reg8Val &= (3 << 1);
 3392              		.loc 1 728 5 is_stmt 1 view .LVU716
 729:Drivers/Radio/Src/MY_NRF24.c ****     reg8Val = (reg8Val >> 1);
 3393              		.loc 1 729 5 view .LVU717
 3394              		.loc 1 729 13 is_stmt 0 view .LVU718
 3395 017e C4F34103 		ubfx	r3, r4, #1, #2
 3396              	.LVL326:
 730:Drivers/Radio/Src/MY_NRF24.c ****     if (reg8Val == 0)
 3397              		.loc 1 730 5 is_stmt 1 view .LVU719
 3398              		.loc 1 730 8 is_stmt 0 view .LVU720
 3399 0182 14F0060F 		tst	r4, #6
 3400 0186 00F0DD81 		beq	.L216
 731:Drivers/Radio/Src/MY_NRF24.c ****         sprintf(uartTxBuf, "RF_PWR:\r\n		-18dB \r\n");
 732:Drivers/Radio/Src/MY_NRF24.c ****     else if (reg8Val == 1)
 3401              		.loc 1 732 10 is_stmt 1 view .LVU721
ARM GAS  C:\Users\sangt\AppData\Local\Temp\cc6s9Yz8.s 			page 79


 3402              		.loc 1 732 13 is_stmt 0 view .LVU722
 3403 018a 012B     		cmp	r3, #1
 3404 018c 00F0E181 		beq	.L217
 733:Drivers/Radio/Src/MY_NRF24.c ****         sprintf(uartTxBuf, "RF_PWR:\r\n		-12dB \r\n");
 734:Drivers/Radio/Src/MY_NRF24.c ****     else if (reg8Val == 2)
 3405              		.loc 1 734 10 is_stmt 1 view .LVU723
 3406              		.loc 1 734 13 is_stmt 0 view .LVU724
 3407 0190 022B     		cmp	r3, #2
 3408 0192 00F0E581 		beq	.L218
 735:Drivers/Radio/Src/MY_NRF24.c ****         sprintf(uartTxBuf, "RF_PWR:\r\n		-6dB \r\n");
 736:Drivers/Radio/Src/MY_NRF24.c ****     else if (reg8Val == 3)
 3409              		.loc 1 736 10 is_stmt 1 view .LVU725
 3410              		.loc 1 736 13 is_stmt 0 view .LVU726
 3411 0196 032B     		cmp	r3, #3
 3412 0198 00F0EC81 		beq	.L219
 3413              	.LVL327:
 3414              	.L208:
 737:Drivers/Radio/Src/MY_NRF24.c ****         sprintf(uartTxBuf, "RF_PWR:\r\n		0dB \r\n");
 738:Drivers/Radio/Src/MY_NRF24.c ****     HAL_UART_Transmit(&nrf24_huart, (uint8_t *)uartTxBuf, strlen(uartTxBuf),
 3415              		.loc 1 738 5 is_stmt 1 view .LVU727
 3416              		.loc 1 738 59 is_stmt 0 view .LVU728
 3417 019c 07A8     		add	r0, sp, #28
 3418 019e FFF7FEFF 		bl	strlen
 3419              	.LVL328:
 3420              		.loc 1 738 5 view .LVU729
 3421 01a2 5F4C     		ldr	r4, .L220+4
 3422 01a4 0A23     		movs	r3, #10
 3423 01a6 82B2     		uxth	r2, r0
 3424 01a8 07A9     		add	r1, sp, #28
 3425 01aa 2046     		mov	r0, r4
 3426 01ac FFF7FEFF 		bl	HAL_UART_Transmit
 3427              	.LVL329:
 739:Drivers/Radio/Src/MY_NRF24.c ****                       10);
 740:Drivers/Radio/Src/MY_NRF24.c ****     // g) RX pipes addresses
 741:Drivers/Radio/Src/MY_NRF24.c ****     uint8_t pipeAddrs[6];
 3428              		.loc 1 741 5 is_stmt 1 view .LVU730
 742:Drivers/Radio/Src/MY_NRF24.c ****     NRF24_read_registerN(0x0A, pipeAddrs, 5);
 3429              		.loc 1 742 5 view .LVU731
 3430 01b0 0522     		movs	r2, #5
 3431 01b2 05A9     		add	r1, sp, #20
 3432 01b4 0A20     		movs	r0, #10
 3433 01b6 FFF7FEFF 		bl	NRF24_read_registerN
 3434              	.LVL330:
 743:Drivers/Radio/Src/MY_NRF24.c ****     sprintf(
 3435              		.loc 1 743 5 view .LVU732
 744:Drivers/Radio/Src/MY_NRF24.c ****         uartTxBuf, "RX_Pipe0 Addrs:\r\n		%02X,%02X,%02X,%02X,%02X  \r\n",
 745:Drivers/Radio/Src/MY_NRF24.c ****         pipeAddrs[4], pipeAddrs[3], pipeAddrs[2], pipeAddrs[1], pipeAddrs[0]);
 3436              		.loc 1 745 46 is_stmt 0 view .LVU733
 3437 01ba 9DF81630 		ldrb	r3, [sp, #22]	@ zero_extendqisi2
 3438              		.loc 1 745 60 view .LVU734
 3439 01be 9DF81520 		ldrb	r2, [sp, #21]	@ zero_extendqisi2
 3440              		.loc 1 745 74 view .LVU735
 3441 01c2 9DF81410 		ldrb	r1, [sp, #20]	@ zero_extendqisi2
 743:Drivers/Radio/Src/MY_NRF24.c ****     sprintf(
 3442              		.loc 1 743 5 view .LVU736
 3443 01c6 0291     		str	r1, [sp, #8]
 3444 01c8 0192     		str	r2, [sp, #4]
ARM GAS  C:\Users\sangt\AppData\Local\Temp\cc6s9Yz8.s 			page 80


 3445 01ca 0093     		str	r3, [sp]
 3446 01cc 9DF81730 		ldrb	r3, [sp, #23]	@ zero_extendqisi2
 3447 01d0 9DF81820 		ldrb	r2, [sp, #24]	@ zero_extendqisi2
 3448 01d4 5949     		ldr	r1, .L220+32
 3449 01d6 07A8     		add	r0, sp, #28
 3450 01d8 FFF7FEFF 		bl	sprintf
 3451              	.LVL331:
 746:Drivers/Radio/Src/MY_NRF24.c ****     HAL_UART_Transmit(&nrf24_huart, (uint8_t *)uartTxBuf, strlen(uartTxBuf),
 3452              		.loc 1 746 5 is_stmt 1 view .LVU737
 3453              		.loc 1 746 59 is_stmt 0 view .LVU738
 3454 01dc 07A8     		add	r0, sp, #28
 3455 01de FFF7FEFF 		bl	strlen
 3456              	.LVL332:
 3457              		.loc 1 746 5 view .LVU739
 3458 01e2 0A23     		movs	r3, #10
 3459 01e4 82B2     		uxth	r2, r0
 3460 01e6 07A9     		add	r1, sp, #28
 3461 01e8 2046     		mov	r0, r4
 3462 01ea FFF7FEFF 		bl	HAL_UART_Transmit
 3463              	.LVL333:
 747:Drivers/Radio/Src/MY_NRF24.c ****                       10);
 748:Drivers/Radio/Src/MY_NRF24.c **** 
 749:Drivers/Radio/Src/MY_NRF24.c ****     NRF24_read_registerN(0x0A + 1, pipeAddrs, 5);
 3464              		.loc 1 749 5 is_stmt 1 view .LVU740
 3465 01ee 0522     		movs	r2, #5
 3466 01f0 05A9     		add	r1, sp, #20
 3467 01f2 0B20     		movs	r0, #11
 3468 01f4 FFF7FEFF 		bl	NRF24_read_registerN
 3469              	.LVL334:
 750:Drivers/Radio/Src/MY_NRF24.c ****     sprintf(
 3470              		.loc 1 750 5 view .LVU741
 751:Drivers/Radio/Src/MY_NRF24.c ****         uartTxBuf, "RX_Pipe1 Addrs:\r\n		%02X,%02X,%02X,%02X,%02X  \r\n",
 752:Drivers/Radio/Src/MY_NRF24.c ****         pipeAddrs[4], pipeAddrs[3], pipeAddrs[2], pipeAddrs[1], pipeAddrs[0]);
 3471              		.loc 1 752 46 is_stmt 0 view .LVU742
 3472 01f8 9DF81630 		ldrb	r3, [sp, #22]	@ zero_extendqisi2
 3473              		.loc 1 752 60 view .LVU743
 3474 01fc 9DF81520 		ldrb	r2, [sp, #21]	@ zero_extendqisi2
 3475              		.loc 1 752 74 view .LVU744
 3476 0200 9DF81410 		ldrb	r1, [sp, #20]	@ zero_extendqisi2
 750:Drivers/Radio/Src/MY_NRF24.c ****     sprintf(
 3477              		.loc 1 750 5 view .LVU745
 3478 0204 0291     		str	r1, [sp, #8]
 3479 0206 0192     		str	r2, [sp, #4]
 3480 0208 0093     		str	r3, [sp]
 3481 020a 9DF81730 		ldrb	r3, [sp, #23]	@ zero_extendqisi2
 3482 020e 9DF81820 		ldrb	r2, [sp, #24]	@ zero_extendqisi2
 3483 0212 4B49     		ldr	r1, .L220+36
 3484 0214 07A8     		add	r0, sp, #28
 3485 0216 FFF7FEFF 		bl	sprintf
 3486              	.LVL335:
 753:Drivers/Radio/Src/MY_NRF24.c ****     HAL_UART_Transmit(&nrf24_huart, (uint8_t *)uartTxBuf, strlen(uartTxBuf),
 3487              		.loc 1 753 5 is_stmt 1 view .LVU746
 3488              		.loc 1 753 59 is_stmt 0 view .LVU747
 3489 021a 07A8     		add	r0, sp, #28
 3490 021c FFF7FEFF 		bl	strlen
 3491              	.LVL336:
 3492              		.loc 1 753 5 view .LVU748
ARM GAS  C:\Users\sangt\AppData\Local\Temp\cc6s9Yz8.s 			page 81


 3493 0220 0A23     		movs	r3, #10
 3494 0222 82B2     		uxth	r2, r0
 3495 0224 07A9     		add	r1, sp, #28
 3496 0226 2046     		mov	r0, r4
 3497 0228 FFF7FEFF 		bl	HAL_UART_Transmit
 3498              	.LVL337:
 754:Drivers/Radio/Src/MY_NRF24.c ****                       10);
 755:Drivers/Radio/Src/MY_NRF24.c **** 
 756:Drivers/Radio/Src/MY_NRF24.c ****     NRF24_read_registerN(0x0A + 2, pipeAddrs, 1);
 3499              		.loc 1 756 5 is_stmt 1 view .LVU749
 3500 022c 0122     		movs	r2, #1
 3501 022e 05A9     		add	r1, sp, #20
 3502 0230 0C20     		movs	r0, #12
 3503 0232 FFF7FEFF 		bl	NRF24_read_registerN
 3504              	.LVL338:
 757:Drivers/Radio/Src/MY_NRF24.c ****     sprintf(uartTxBuf, "RX_Pipe2 Addrs:\r\n		xx,xx,xx,xx,%02X  \r\n",
 3505              		.loc 1 757 5 view .LVU750
 3506 0236 9DF81420 		ldrb	r2, [sp, #20]	@ zero_extendqisi2
 3507 023a 4249     		ldr	r1, .L220+40
 3508 023c 07A8     		add	r0, sp, #28
 3509 023e FFF7FEFF 		bl	sprintf
 3510              	.LVL339:
 758:Drivers/Radio/Src/MY_NRF24.c ****             pipeAddrs[0]);
 759:Drivers/Radio/Src/MY_NRF24.c ****     HAL_UART_Transmit(&nrf24_huart, (uint8_t *)uartTxBuf, strlen(uartTxBuf),
 3511              		.loc 1 759 5 view .LVU751
 3512              		.loc 1 759 59 is_stmt 0 view .LVU752
 3513 0242 07A8     		add	r0, sp, #28
 3514 0244 FFF7FEFF 		bl	strlen
 3515              	.LVL340:
 3516              		.loc 1 759 5 view .LVU753
 3517 0248 0A23     		movs	r3, #10
 3518 024a 82B2     		uxth	r2, r0
 3519 024c 07A9     		add	r1, sp, #28
 3520 024e 2046     		mov	r0, r4
 3521 0250 FFF7FEFF 		bl	HAL_UART_Transmit
 3522              	.LVL341:
 760:Drivers/Radio/Src/MY_NRF24.c ****                       10);
 761:Drivers/Radio/Src/MY_NRF24.c **** 
 762:Drivers/Radio/Src/MY_NRF24.c ****     NRF24_read_registerN(0x0A + 3, pipeAddrs, 1);
 3523              		.loc 1 762 5 is_stmt 1 view .LVU754
 3524 0254 0122     		movs	r2, #1
 3525 0256 05A9     		add	r1, sp, #20
 3526 0258 0D20     		movs	r0, #13
 3527 025a FFF7FEFF 		bl	NRF24_read_registerN
 3528              	.LVL342:
 763:Drivers/Radio/Src/MY_NRF24.c ****     sprintf(uartTxBuf, "RX_Pipe3 Addrs:\r\n		xx,xx,xx,xx,%02X  \r\n",
 3529              		.loc 1 763 5 view .LVU755
 3530 025e 9DF81420 		ldrb	r2, [sp, #20]	@ zero_extendqisi2
 3531 0262 3949     		ldr	r1, .L220+44
 3532 0264 07A8     		add	r0, sp, #28
 3533 0266 FFF7FEFF 		bl	sprintf
 3534              	.LVL343:
 764:Drivers/Radio/Src/MY_NRF24.c ****             pipeAddrs[0]);
 765:Drivers/Radio/Src/MY_NRF24.c ****     HAL_UART_Transmit(&nrf24_huart, (uint8_t *)uartTxBuf, strlen(uartTxBuf),
 3535              		.loc 1 765 5 view .LVU756
 3536              		.loc 1 765 59 is_stmt 0 view .LVU757
 3537 026a 07A8     		add	r0, sp, #28
ARM GAS  C:\Users\sangt\AppData\Local\Temp\cc6s9Yz8.s 			page 82


 3538 026c FFF7FEFF 		bl	strlen
 3539              	.LVL344:
 3540              		.loc 1 765 5 view .LVU758
 3541 0270 0A23     		movs	r3, #10
 3542 0272 82B2     		uxth	r2, r0
 3543 0274 07A9     		add	r1, sp, #28
 3544 0276 2046     		mov	r0, r4
 3545 0278 FFF7FEFF 		bl	HAL_UART_Transmit
 3546              	.LVL345:
 766:Drivers/Radio/Src/MY_NRF24.c ****                       10);
 767:Drivers/Radio/Src/MY_NRF24.c **** 
 768:Drivers/Radio/Src/MY_NRF24.c ****     NRF24_read_registerN(0x0A + 4, pipeAddrs, 1);
 3547              		.loc 1 768 5 is_stmt 1 view .LVU759
 3548 027c 0122     		movs	r2, #1
 3549 027e 05A9     		add	r1, sp, #20
 3550 0280 0E20     		movs	r0, #14
 3551 0282 FFF7FEFF 		bl	NRF24_read_registerN
 3552              	.LVL346:
 769:Drivers/Radio/Src/MY_NRF24.c ****     sprintf(uartTxBuf, "RX_Pipe4 Addrs:\r\n		xx,xx,xx,xx,%02X  \r\n",
 3553              		.loc 1 769 5 view .LVU760
 3554 0286 9DF81420 		ldrb	r2, [sp, #20]	@ zero_extendqisi2
 3555 028a 3049     		ldr	r1, .L220+48
 3556 028c 07A8     		add	r0, sp, #28
 3557 028e FFF7FEFF 		bl	sprintf
 3558              	.LVL347:
 770:Drivers/Radio/Src/MY_NRF24.c ****             pipeAddrs[0]);
 771:Drivers/Radio/Src/MY_NRF24.c ****     HAL_UART_Transmit(&nrf24_huart, (uint8_t *)uartTxBuf, strlen(uartTxBuf),
 3559              		.loc 1 771 5 view .LVU761
 3560              		.loc 1 771 59 is_stmt 0 view .LVU762
 3561 0292 07A8     		add	r0, sp, #28
 3562 0294 FFF7FEFF 		bl	strlen
 3563              	.LVL348:
 3564              		.loc 1 771 5 view .LVU763
 3565 0298 0A23     		movs	r3, #10
 3566 029a 82B2     		uxth	r2, r0
 3567 029c 07A9     		add	r1, sp, #28
 3568 029e 2046     		mov	r0, r4
 3569 02a0 FFF7FEFF 		bl	HAL_UART_Transmit
 3570              	.LVL349:
 772:Drivers/Radio/Src/MY_NRF24.c ****                       10);
 773:Drivers/Radio/Src/MY_NRF24.c **** 
 774:Drivers/Radio/Src/MY_NRF24.c ****     NRF24_read_registerN(0x0A + 5, pipeAddrs, 1);
 3571              		.loc 1 774 5 is_stmt 1 view .LVU764
 3572 02a4 0122     		movs	r2, #1
 3573 02a6 05A9     		add	r1, sp, #20
 3574 02a8 0F20     		movs	r0, #15
 3575 02aa FFF7FEFF 		bl	NRF24_read_registerN
 3576              	.LVL350:
 775:Drivers/Radio/Src/MY_NRF24.c ****     sprintf(uartTxBuf, "RX_Pipe5 Addrs:\r\n		xx,xx,xx,xx,%02X  \r\n",
 3577              		.loc 1 775 5 view .LVU765
 3578 02ae 9DF81420 		ldrb	r2, [sp, #20]	@ zero_extendqisi2
 3579 02b2 2749     		ldr	r1, .L220+52
 3580 02b4 07A8     		add	r0, sp, #28
 3581 02b6 FFF7FEFF 		bl	sprintf
 3582              	.LVL351:
 776:Drivers/Radio/Src/MY_NRF24.c ****             pipeAddrs[0]);
 777:Drivers/Radio/Src/MY_NRF24.c ****     HAL_UART_Transmit(&nrf24_huart, (uint8_t *)uartTxBuf, strlen(uartTxBuf),
ARM GAS  C:\Users\sangt\AppData\Local\Temp\cc6s9Yz8.s 			page 83


 3583              		.loc 1 777 5 view .LVU766
 3584              		.loc 1 777 59 is_stmt 0 view .LVU767
 3585 02ba 07A8     		add	r0, sp, #28
 3586 02bc FFF7FEFF 		bl	strlen
 3587              	.LVL352:
 3588              		.loc 1 777 5 view .LVU768
 3589 02c0 0A23     		movs	r3, #10
 3590 02c2 82B2     		uxth	r2, r0
 3591 02c4 07A9     		add	r1, sp, #28
 3592 02c6 2046     		mov	r0, r4
 3593 02c8 FFF7FEFF 		bl	HAL_UART_Transmit
 3594              	.LVL353:
 778:Drivers/Radio/Src/MY_NRF24.c ****                       10);
 779:Drivers/Radio/Src/MY_NRF24.c **** 
 780:Drivers/Radio/Src/MY_NRF24.c ****     NRF24_read_registerN(0x0A + 6, pipeAddrs, 5);
 3595              		.loc 1 780 5 is_stmt 1 view .LVU769
 3596 02cc 0522     		movs	r2, #5
 3597 02ce 05A9     		add	r1, sp, #20
 3598 02d0 1020     		movs	r0, #16
 3599 02d2 FFF7FEFF 		bl	NRF24_read_registerN
 3600              	.LVL354:
 781:Drivers/Radio/Src/MY_NRF24.c ****     sprintf(
 3601              		.loc 1 781 5 view .LVU770
 782:Drivers/Radio/Src/MY_NRF24.c ****         uartTxBuf, "TX Addrs:\r\n		%02X,%02X,%02X,%02X,%02X  \r\n",
 783:Drivers/Radio/Src/MY_NRF24.c ****         pipeAddrs[4], pipeAddrs[3], pipeAddrs[2], pipeAddrs[1], pipeAddrs[0]);
 3602              		.loc 1 783 46 is_stmt 0 view .LVU771
 3603 02d6 9DF81630 		ldrb	r3, [sp, #22]	@ zero_extendqisi2
 3604              		.loc 1 783 60 view .LVU772
 3605 02da 9DF81520 		ldrb	r2, [sp, #21]	@ zero_extendqisi2
 3606              		.loc 1 783 74 view .LVU773
 3607 02de 9DF81410 		ldrb	r1, [sp, #20]	@ zero_extendqisi2
 781:Drivers/Radio/Src/MY_NRF24.c ****     sprintf(
 3608              		.loc 1 781 5 view .LVU774
 3609 02e2 0291     		str	r1, [sp, #8]
 3610 02e4 0192     		str	r2, [sp, #4]
 3611 02e6 0093     		str	r3, [sp]
 3612 02e8 9DF81730 		ldrb	r3, [sp, #23]	@ zero_extendqisi2
 3613 02ec 9DF81820 		ldrb	r2, [sp, #24]	@ zero_extendqisi2
 3614 02f0 1849     		ldr	r1, .L220+56
 3615 02f2 07A8     		add	r0, sp, #28
 3616 02f4 FFF7FEFF 		bl	sprintf
 3617              	.LVL355:
 784:Drivers/Radio/Src/MY_NRF24.c ****     HAL_UART_Transmit(&nrf24_huart, (uint8_t *)uartTxBuf, strlen(uartTxBuf),
 3618              		.loc 1 784 5 is_stmt 1 view .LVU775
 3619              		.loc 1 784 59 is_stmt 0 view .LVU776
 3620 02f8 07A8     		add	r0, sp, #28
 3621 02fa FFF7FEFF 		bl	strlen
 3622              	.LVL356:
 3623              		.loc 1 784 5 view .LVU777
 3624 02fe 0A23     		movs	r3, #10
 3625 0300 82B2     		uxth	r2, r0
 3626 0302 07A9     		add	r1, sp, #28
 3627 0304 2046     		mov	r0, r4
 3628 0306 FFF7FEFF 		bl	HAL_UART_Transmit
 3629              	.LVL357:
 785:Drivers/Radio/Src/MY_NRF24.c ****                       10);
 786:Drivers/Radio/Src/MY_NRF24.c **** 
ARM GAS  C:\Users\sangt\AppData\Local\Temp\cc6s9Yz8.s 			page 84


 787:Drivers/Radio/Src/MY_NRF24.c ****     // h) RX PW (Payload Width 0 - 32)
 788:Drivers/Radio/Src/MY_NRF24.c ****     reg8Val = NRF24_read_register(0x11);
 3630              		.loc 1 788 5 is_stmt 1 view .LVU778
 3631              		.loc 1 788 15 is_stmt 0 view .LVU779
 3632 030a 1120     		movs	r0, #17
 3633 030c FFF7FEFF 		bl	NRF24_read_register
 3634              	.LVL358:
 789:Drivers/Radio/Src/MY_NRF24.c ****     sprintf(uartTxBuf, "RX_PW_P0:\r\n		%d bytes \r\n", reg8Val & 0x3F);
 3635              		.loc 1 789 5 is_stmt 1 view .LVU780
 3636 0310 00F03F02 		and	r2, r0, #63
 3637 0314 1049     		ldr	r1, .L220+60
 3638 0316 07A8     		add	r0, sp, #28
 3639 0318 20E0     		b	.L221
 3640              	.L222:
 3641 031a 00BF     		.align	2
 3642              	.L220:
 3643 031c 00000000 		.word	.LC2
 3644 0320 00000000 		.word	.LANCHOR12
 3645 0324 34000000 		.word	.LC3
 3646 0328 80000000 		.word	.LC6
 3647 032c C4000000 		.word	.LC7
 3648 0330 10010000 		.word	.LC8
 3649 0334 2C010000 		.word	.LC9
 3650 0338 40010000 		.word	.LC10
 3651 033c C0010000 		.word	.LC16
 3652 0340 F0010000 		.word	.LC17
 3653 0344 20020000 		.word	.LC18
 3654 0348 48020000 		.word	.LC19
 3655 034c 70020000 		.word	.LC20
 3656 0350 98020000 		.word	.LC21
 3657 0354 C0020000 		.word	.LC22
 3658 0358 EC020000 		.word	.LC23
 3659              	.L221:
 3660              	.LVL359:
 3661              		.loc 1 789 5 is_stmt 0 view .LVU781
 3662 035c FFF7FEFF 		bl	sprintf
 3663              	.LVL360:
 790:Drivers/Radio/Src/MY_NRF24.c ****     HAL_UART_Transmit(&nrf24_huart, (uint8_t *)uartTxBuf, strlen(uartTxBuf),
 3664              		.loc 1 790 5 is_stmt 1 view .LVU782
 3665              		.loc 1 790 59 is_stmt 0 view .LVU783
 3666 0360 07A8     		add	r0, sp, #28
 3667 0362 FFF7FEFF 		bl	strlen
 3668              	.LVL361:
 3669              		.loc 1 790 5 view .LVU784
 3670 0366 0A23     		movs	r3, #10
 3671 0368 82B2     		uxth	r2, r0
 3672 036a 07A9     		add	r1, sp, #28
 3673 036c 2046     		mov	r0, r4
 3674 036e FFF7FEFF 		bl	HAL_UART_Transmit
 3675              	.LVL362:
 791:Drivers/Radio/Src/MY_NRF24.c ****                       10);
 792:Drivers/Radio/Src/MY_NRF24.c **** 
 793:Drivers/Radio/Src/MY_NRF24.c ****     reg8Val = NRF24_read_register(0x11 + 1);
 3676              		.loc 1 793 5 is_stmt 1 view .LVU785
 3677              		.loc 1 793 15 is_stmt 0 view .LVU786
 3678 0372 1220     		movs	r0, #18
 3679 0374 FFF7FEFF 		bl	NRF24_read_register
ARM GAS  C:\Users\sangt\AppData\Local\Temp\cc6s9Yz8.s 			page 85


 3680              	.LVL363:
 794:Drivers/Radio/Src/MY_NRF24.c ****     sprintf(uartTxBuf, "RX_PW_P1:\r\n		%d bytes \r\n", reg8Val & 0x3F);
 3681              		.loc 1 794 5 is_stmt 1 view .LVU787
 3682 0378 00F03F02 		and	r2, r0, #63
 3683 037c 8D49     		ldr	r1, .L223
 3684 037e 07A8     		add	r0, sp, #28
 3685              	.LVL364:
 3686              		.loc 1 794 5 is_stmt 0 view .LVU788
 3687 0380 FFF7FEFF 		bl	sprintf
 3688              	.LVL365:
 795:Drivers/Radio/Src/MY_NRF24.c ****     HAL_UART_Transmit(&nrf24_huart, (uint8_t *)uartTxBuf, strlen(uartTxBuf),
 3689              		.loc 1 795 5 is_stmt 1 view .LVU789
 3690              		.loc 1 795 59 is_stmt 0 view .LVU790
 3691 0384 07A8     		add	r0, sp, #28
 3692 0386 FFF7FEFF 		bl	strlen
 3693              	.LVL366:
 3694              		.loc 1 795 5 view .LVU791
 3695 038a 0A23     		movs	r3, #10
 3696 038c 82B2     		uxth	r2, r0
 3697 038e 07A9     		add	r1, sp, #28
 3698 0390 2046     		mov	r0, r4
 3699 0392 FFF7FEFF 		bl	HAL_UART_Transmit
 3700              	.LVL367:
 796:Drivers/Radio/Src/MY_NRF24.c ****                       10);
 797:Drivers/Radio/Src/MY_NRF24.c **** 
 798:Drivers/Radio/Src/MY_NRF24.c ****     reg8Val = NRF24_read_register(0x11 + 2);
 3701              		.loc 1 798 5 is_stmt 1 view .LVU792
 3702              		.loc 1 798 15 is_stmt 0 view .LVU793
 3703 0396 1320     		movs	r0, #19
 3704 0398 FFF7FEFF 		bl	NRF24_read_register
 3705              	.LVL368:
 799:Drivers/Radio/Src/MY_NRF24.c ****     sprintf(uartTxBuf, "RX_PW_P2:\r\n		%d bytes \r\n", reg8Val & 0x3F);
 3706              		.loc 1 799 5 is_stmt 1 view .LVU794
 3707 039c 00F03F02 		and	r2, r0, #63
 3708 03a0 8549     		ldr	r1, .L223+4
 3709 03a2 07A8     		add	r0, sp, #28
 3710              	.LVL369:
 3711              		.loc 1 799 5 is_stmt 0 view .LVU795
 3712 03a4 FFF7FEFF 		bl	sprintf
 3713              	.LVL370:
 800:Drivers/Radio/Src/MY_NRF24.c ****     HAL_UART_Transmit(&nrf24_huart, (uint8_t *)uartTxBuf, strlen(uartTxBuf),
 3714              		.loc 1 800 5 is_stmt 1 view .LVU796
 3715              		.loc 1 800 59 is_stmt 0 view .LVU797
 3716 03a8 07A8     		add	r0, sp, #28
 3717 03aa FFF7FEFF 		bl	strlen
 3718              	.LVL371:
 3719              		.loc 1 800 5 view .LVU798
 3720 03ae 0A23     		movs	r3, #10
 3721 03b0 82B2     		uxth	r2, r0
 3722 03b2 07A9     		add	r1, sp, #28
 3723 03b4 2046     		mov	r0, r4
 3724 03b6 FFF7FEFF 		bl	HAL_UART_Transmit
 3725              	.LVL372:
 801:Drivers/Radio/Src/MY_NRF24.c ****                       10);
 802:Drivers/Radio/Src/MY_NRF24.c **** 
 803:Drivers/Radio/Src/MY_NRF24.c ****     reg8Val = NRF24_read_register(0x11 + 3);
 3726              		.loc 1 803 5 is_stmt 1 view .LVU799
ARM GAS  C:\Users\sangt\AppData\Local\Temp\cc6s9Yz8.s 			page 86


 3727              		.loc 1 803 15 is_stmt 0 view .LVU800
 3728 03ba 1420     		movs	r0, #20
 3729 03bc FFF7FEFF 		bl	NRF24_read_register
 3730              	.LVL373:
 804:Drivers/Radio/Src/MY_NRF24.c ****     sprintf(uartTxBuf, "RX_PW_P3:\r\n		%d bytes \r\n", reg8Val & 0x3F);
 3731              		.loc 1 804 5 is_stmt 1 view .LVU801
 3732 03c0 00F03F02 		and	r2, r0, #63
 3733 03c4 7D49     		ldr	r1, .L223+8
 3734 03c6 07A8     		add	r0, sp, #28
 3735              	.LVL374:
 3736              		.loc 1 804 5 is_stmt 0 view .LVU802
 3737 03c8 FFF7FEFF 		bl	sprintf
 3738              	.LVL375:
 805:Drivers/Radio/Src/MY_NRF24.c ****     HAL_UART_Transmit(&nrf24_huart, (uint8_t *)uartTxBuf, strlen(uartTxBuf),
 3739              		.loc 1 805 5 is_stmt 1 view .LVU803
 3740              		.loc 1 805 59 is_stmt 0 view .LVU804
 3741 03cc 07A8     		add	r0, sp, #28
 3742 03ce FFF7FEFF 		bl	strlen
 3743              	.LVL376:
 3744              		.loc 1 805 5 view .LVU805
 3745 03d2 0A23     		movs	r3, #10
 3746 03d4 82B2     		uxth	r2, r0
 3747 03d6 07A9     		add	r1, sp, #28
 3748 03d8 2046     		mov	r0, r4
 3749 03da FFF7FEFF 		bl	HAL_UART_Transmit
 3750              	.LVL377:
 806:Drivers/Radio/Src/MY_NRF24.c ****                       10);
 807:Drivers/Radio/Src/MY_NRF24.c **** 
 808:Drivers/Radio/Src/MY_NRF24.c ****     reg8Val = NRF24_read_register(0x11 + 4);
 3751              		.loc 1 808 5 is_stmt 1 view .LVU806
 3752              		.loc 1 808 15 is_stmt 0 view .LVU807
 3753 03de 1520     		movs	r0, #21
 3754 03e0 FFF7FEFF 		bl	NRF24_read_register
 3755              	.LVL378:
 809:Drivers/Radio/Src/MY_NRF24.c ****     sprintf(uartTxBuf, "RX_PW_P4:\r\n		%d bytes \r\n", reg8Val & 0x3F);
 3756              		.loc 1 809 5 is_stmt 1 view .LVU808
 3757 03e4 00F03F02 		and	r2, r0, #63
 3758 03e8 7549     		ldr	r1, .L223+12
 3759 03ea 07A8     		add	r0, sp, #28
 3760              	.LVL379:
 3761              		.loc 1 809 5 is_stmt 0 view .LVU809
 3762 03ec FFF7FEFF 		bl	sprintf
 3763              	.LVL380:
 810:Drivers/Radio/Src/MY_NRF24.c ****     HAL_UART_Transmit(&nrf24_huart, (uint8_t *)uartTxBuf, strlen(uartTxBuf),
 3764              		.loc 1 810 5 is_stmt 1 view .LVU810
 3765              		.loc 1 810 59 is_stmt 0 view .LVU811
 3766 03f0 07A8     		add	r0, sp, #28
 3767 03f2 FFF7FEFF 		bl	strlen
 3768              	.LVL381:
 3769              		.loc 1 810 5 view .LVU812
 3770 03f6 0A23     		movs	r3, #10
 3771 03f8 82B2     		uxth	r2, r0
 3772 03fa 07A9     		add	r1, sp, #28
 3773 03fc 2046     		mov	r0, r4
 3774 03fe FFF7FEFF 		bl	HAL_UART_Transmit
 3775              	.LVL382:
 811:Drivers/Radio/Src/MY_NRF24.c ****                       10);
ARM GAS  C:\Users\sangt\AppData\Local\Temp\cc6s9Yz8.s 			page 87


 812:Drivers/Radio/Src/MY_NRF24.c **** 
 813:Drivers/Radio/Src/MY_NRF24.c ****     reg8Val = NRF24_read_register(0x11 + 5);
 3776              		.loc 1 813 5 is_stmt 1 view .LVU813
 3777              		.loc 1 813 15 is_stmt 0 view .LVU814
 3778 0402 1620     		movs	r0, #22
 3779 0404 FFF7FEFF 		bl	NRF24_read_register
 3780              	.LVL383:
 814:Drivers/Radio/Src/MY_NRF24.c ****     sprintf(uartTxBuf, "RX_PW_P5:\r\n		%d bytes \r\n", reg8Val & 0x3F);
 3781              		.loc 1 814 5 is_stmt 1 view .LVU815
 3782 0408 00F03F02 		and	r2, r0, #63
 3783 040c 6D49     		ldr	r1, .L223+16
 3784 040e 07A8     		add	r0, sp, #28
 3785              	.LVL384:
 3786              		.loc 1 814 5 is_stmt 0 view .LVU816
 3787 0410 FFF7FEFF 		bl	sprintf
 3788              	.LVL385:
 815:Drivers/Radio/Src/MY_NRF24.c ****     HAL_UART_Transmit(&nrf24_huart, (uint8_t *)uartTxBuf, strlen(uartTxBuf),
 3789              		.loc 1 815 5 is_stmt 1 view .LVU817
 3790              		.loc 1 815 59 is_stmt 0 view .LVU818
 3791 0414 07A8     		add	r0, sp, #28
 3792 0416 FFF7FEFF 		bl	strlen
 3793              	.LVL386:
 3794              		.loc 1 815 5 view .LVU819
 3795 041a 0A23     		movs	r3, #10
 3796 041c 82B2     		uxth	r2, r0
 3797 041e 07A9     		add	r1, sp, #28
 3798 0420 2046     		mov	r0, r4
 3799 0422 FFF7FEFF 		bl	HAL_UART_Transmit
 3800              	.LVL387:
 816:Drivers/Radio/Src/MY_NRF24.c ****                       10);
 817:Drivers/Radio/Src/MY_NRF24.c **** 
 818:Drivers/Radio/Src/MY_NRF24.c ****     // i) Dynamic payload enable for each pipe
 819:Drivers/Radio/Src/MY_NRF24.c ****     reg8Val = NRF24_read_register(0x1c);
 3801              		.loc 1 819 5 is_stmt 1 view .LVU820
 3802              		.loc 1 819 15 is_stmt 0 view .LVU821
 3803 0426 1C20     		movs	r0, #28
 3804 0428 FFF7FEFF 		bl	NRF24_read_register
 3805              	.LVL388:
 820:Drivers/Radio/Src/MY_NRF24.c ****     sprintf(uartTxBuf,
 3806              		.loc 1 820 5 is_stmt 1 view .LVU822
 3807 042c C0F34013 		ubfx	r3, r0, #5, #1
 3808 0430 0393     		str	r3, [sp, #12]
 3809 0432 C0F30013 		ubfx	r3, r0, #4, #1
 3810 0436 0293     		str	r3, [sp, #8]
 3811 0438 C0F3C003 		ubfx	r3, r0, #3, #1
 3812 043c 0193     		str	r3, [sp, #4]
 3813 043e C0F38003 		ubfx	r3, r0, #2, #1
 3814 0442 0093     		str	r3, [sp]
 3815 0444 C0F34003 		ubfx	r3, r0, #1, #1
 3816 0448 00F00102 		and	r2, r0, #1
 3817 044c 5E49     		ldr	r1, .L223+20
 3818 044e 07A8     		add	r0, sp, #28
 3819              	.LVL389:
 3820              		.loc 1 820 5 is_stmt 0 view .LVU823
 3821 0450 FFF7FEFF 		bl	sprintf
 3822              	.LVL390:
 821:Drivers/Radio/Src/MY_NRF24.c ****             "DYNPD_pipe:\r\n		P0:	%d\r\n		P1:	"
ARM GAS  C:\Users\sangt\AppData\Local\Temp\cc6s9Yz8.s 			page 88


 822:Drivers/Radio/Src/MY_NRF24.c ****             "%d\r\n		P2:	%d\r\n		P3:	%d\r\n	"
 823:Drivers/Radio/Src/MY_NRF24.c ****             "	P4:	%d\r\n		P5:	%d\r\n",
 824:Drivers/Radio/Src/MY_NRF24.c ****             _BOOL(reg8Val & (1 << 0)), _BOOL(reg8Val & (1 << 1)),
 825:Drivers/Radio/Src/MY_NRF24.c ****             _BOOL(reg8Val & (1 << 2)), _BOOL(reg8Val & (1 << 3)),
 826:Drivers/Radio/Src/MY_NRF24.c ****             _BOOL(reg8Val & (1 << 4)), _BOOL(reg8Val & (1 << 5)));
 827:Drivers/Radio/Src/MY_NRF24.c ****     HAL_UART_Transmit(&nrf24_huart, (uint8_t *)uartTxBuf, strlen(uartTxBuf),
 3823              		.loc 1 827 5 is_stmt 1 view .LVU824
 3824              		.loc 1 827 59 is_stmt 0 view .LVU825
 3825 0454 07A8     		add	r0, sp, #28
 3826 0456 FFF7FEFF 		bl	strlen
 3827              	.LVL391:
 3828              		.loc 1 827 5 view .LVU826
 3829 045a 0A23     		movs	r3, #10
 3830 045c 82B2     		uxth	r2, r0
 3831 045e 07A9     		add	r1, sp, #28
 3832 0460 2046     		mov	r0, r4
 3833 0462 FFF7FEFF 		bl	HAL_UART_Transmit
 3834              	.LVL392:
 828:Drivers/Radio/Src/MY_NRF24.c ****                       10);
 829:Drivers/Radio/Src/MY_NRF24.c **** 
 830:Drivers/Radio/Src/MY_NRF24.c ****     // j) EN_DPL (is Dynamic payload feature enabled ?)
 831:Drivers/Radio/Src/MY_NRF24.c ****     reg8Val = NRF24_read_register(0x1d);
 3835              		.loc 1 831 5 is_stmt 1 view .LVU827
 3836              		.loc 1 831 15 is_stmt 0 view .LVU828
 3837 0466 1D20     		movs	r0, #29
 3838 0468 FFF7FEFF 		bl	NRF24_read_register
 3839              	.LVL393:
 3840 046c 0546     		mov	r5, r0
 3841              	.LVL394:
 832:Drivers/Radio/Src/MY_NRF24.c ****     if (reg8Val & (1 << 2))
 3842              		.loc 1 832 5 is_stmt 1 view .LVU829
 3843              		.loc 1 832 8 is_stmt 0 view .LVU830
 3844 046e 10F0040F 		tst	r0, #4
 3845 0472 00F08680 		beq	.L211
 833:Drivers/Radio/Src/MY_NRF24.c ****         sprintf(uartTxBuf, "EN_DPL:\r\n		Enabled \r\n");
 3846              		.loc 1 833 9 is_stmt 1 view .LVU831
 3847 0476 07AC     		add	r4, sp, #28
 3848 0478 544E     		ldr	r6, .L223+24
 3849 047a 0FCE     		ldmia	r6!, {r0, r1, r2, r3}
 3850              	.LVL395:
 3851              		.loc 1 833 9 is_stmt 0 view .LVU832
 3852 047c 0FC4     		stmia	r4!, {r0, r1, r2, r3}
 3853 047e 96E80300 		ldm	r6, {r0, r1}
 3854 0482 44F8040B 		str	r0, [r4], #4
 3855 0486 2180     		strh	r1, [r4]	@ movhi
 3856              	.L212:
 834:Drivers/Radio/Src/MY_NRF24.c ****     else
 835:Drivers/Radio/Src/MY_NRF24.c ****         sprintf(uartTxBuf, "EN_DPL:\r\n		Disabled \r\n");
 836:Drivers/Radio/Src/MY_NRF24.c ****     HAL_UART_Transmit(&nrf24_huart, (uint8_t *)uartTxBuf, strlen(uartTxBuf),
 3857              		.loc 1 836 5 is_stmt 1 view .LVU833
 3858              		.loc 1 836 59 is_stmt 0 view .LVU834
 3859 0488 07A8     		add	r0, sp, #28
 3860 048a FFF7FEFF 		bl	strlen
 3861              	.LVL396:
 3862              		.loc 1 836 5 view .LVU835
 3863 048e 0A23     		movs	r3, #10
 3864 0490 82B2     		uxth	r2, r0
ARM GAS  C:\Users\sangt\AppData\Local\Temp\cc6s9Yz8.s 			page 89


 3865 0492 07A9     		add	r1, sp, #28
 3866 0494 4E48     		ldr	r0, .L223+28
 3867 0496 FFF7FEFF 		bl	HAL_UART_Transmit
 3868              	.LVL397:
 837:Drivers/Radio/Src/MY_NRF24.c ****                       10);
 838:Drivers/Radio/Src/MY_NRF24.c **** 
 839:Drivers/Radio/Src/MY_NRF24.c ****     // k) EN_ACK_PAY
 840:Drivers/Radio/Src/MY_NRF24.c ****     if (reg8Val & (1 << 1))
 3869              		.loc 1 840 5 is_stmt 1 view .LVU836
 3870              		.loc 1 840 8 is_stmt 0 view .LVU837
 3871 049a 15F0020F 		tst	r5, #2
 3872 049e 7DD0     		beq	.L213
 841:Drivers/Radio/Src/MY_NRF24.c ****         sprintf(uartTxBuf, "EN_ACK_PAY:\r\n		Enabled \r\n");
 3873              		.loc 1 841 9 is_stmt 1 view .LVU838
 3874 04a0 07AC     		add	r4, sp, #28
 3875 04a2 4C4D     		ldr	r5, .L223+32
 3876 04a4 0FCD     		ldmia	r5!, {r0, r1, r2, r3}
 3877 04a6 0FC4     		stmia	r4!, {r0, r1, r2, r3}
 3878 04a8 95E80700 		ldm	r5, {r0, r1, r2}
 3879 04ac 03C4     		stmia	r4!, {r0, r1}
 3880 04ae 2280     		strh	r2, [r4]	@ movhi
 3881              	.L214:
 842:Drivers/Radio/Src/MY_NRF24.c ****     else
 843:Drivers/Radio/Src/MY_NRF24.c ****         sprintf(uartTxBuf, "EN_ACK_PAY:\r\n		Disabled \r\n");
 844:Drivers/Radio/Src/MY_NRF24.c ****     HAL_UART_Transmit(&nrf24_huart, (uint8_t *)uartTxBuf, strlen(uartTxBuf),
 3882              		.loc 1 844 5 view .LVU839
 3883              		.loc 1 844 59 is_stmt 0 view .LVU840
 3884 04b0 07A8     		add	r0, sp, #28
 3885 04b2 FFF7FEFF 		bl	strlen
 3886              	.LVL398:
 3887              		.loc 1 844 5 view .LVU841
 3888 04b6 464D     		ldr	r5, .L223+28
 3889 04b8 0A23     		movs	r3, #10
 3890 04ba 82B2     		uxth	r2, r0
 3891 04bc 07A9     		add	r1, sp, #28
 3892 04be 2846     		mov	r0, r5
 3893 04c0 FFF7FEFF 		bl	HAL_UART_Transmit
 3894              	.LVL399:
 845:Drivers/Radio/Src/MY_NRF24.c ****                       10);
 846:Drivers/Radio/Src/MY_NRF24.c **** 
 847:Drivers/Radio/Src/MY_NRF24.c ****     sprintf(uartTxBuf,
 3895              		.loc 1 847 5 is_stmt 1 view .LVU842
 3896 04c4 0DF11C0C 		add	ip, sp, #28
 3897 04c8 434C     		ldr	r4, .L223+36
 3898 04ca 0FCC     		ldmia	r4!, {r0, r1, r2, r3}
 3899 04cc ACE80F00 		stmia	ip!, {r0, r1, r2, r3}
 3900 04d0 0FCC     		ldmia	r4!, {r0, r1, r2, r3}
 3901 04d2 ACE80F00 		stmia	ip!, {r0, r1, r2, r3}
 3902 04d6 0FCC     		ldmia	r4!, {r0, r1, r2, r3}
 3903 04d8 ACE80F00 		stmia	ip!, {r0, r1, r2, r3}
 3904 04dc 2368     		ldr	r3, [r4]
 3905 04de 2CF8023B 		strh	r3, [ip], #2	@ movhi
 3906 04e2 1B0C     		lsrs	r3, r3, #16
 3907 04e4 8CF80030 		strb	r3, [ip]
 848:Drivers/Radio/Src/MY_NRF24.c ****             "\r\n**********************************************\r\n");
 849:Drivers/Radio/Src/MY_NRF24.c ****     HAL_UART_Transmit(&nrf24_huart, (uint8_t *)uartTxBuf, strlen(uartTxBuf),
 3908              		.loc 1 849 5 view .LVU843
ARM GAS  C:\Users\sangt\AppData\Local\Temp\cc6s9Yz8.s 			page 90


 3909              		.loc 1 849 59 is_stmt 0 view .LVU844
 3910 04e8 07A8     		add	r0, sp, #28
 3911 04ea FFF7FEFF 		bl	strlen
 3912              	.LVL400:
 3913              		.loc 1 849 5 view .LVU845
 3914 04ee 0A23     		movs	r3, #10
 3915 04f0 82B2     		uxth	r2, r0
 3916 04f2 07A9     		add	r1, sp, #28
 3917 04f4 2846     		mov	r0, r5
 3918 04f6 FFF7FEFF 		bl	HAL_UART_Transmit
 3919              	.LVL401:
 850:Drivers/Radio/Src/MY_NRF24.c ****                       10);
 851:Drivers/Radio/Src/MY_NRF24.c **** }
 3920              		.loc 1 851 1 view .LVU846
 3921 04fa 20B0     		add	sp, sp, #128
 3922              	.LCFI73:
 3923              		.cfi_remember_state
 3924              		.cfi_def_cfa_offset 16
 3925              		@ sp needed
 3926 04fc 70BD     		pop	{r4, r5, r6, pc}
 3927              	.LVL402:
 3928              	.L203:
 3929              	.LCFI74:
 3930              		.cfi_restore_state
 681:Drivers/Radio/Src/MY_NRF24.c ****     } else {
 3931              		.loc 1 681 13 is_stmt 1 view .LVU847
 3932 04fe 07AC     		add	r4, sp, #28
 3933 0500 364D     		ldr	r5, .L223+40
 3934 0502 0FCD     		ldmia	r5!, {r0, r1, r2, r3}
 3935              	.LVL403:
 681:Drivers/Radio/Src/MY_NRF24.c ****     } else {
 3936              		.loc 1 681 13 is_stmt 0 view .LVU848
 3937 0504 0FC4     		stmia	r4!, {r0, r1, r2, r3}
 3938 0506 95E80700 		ldm	r5, {r0, r1, r2}
 3939 050a 03C4     		stmia	r4!, {r0, r1}
 3940 050c 24F8022B 		strh	r2, [r4], #2	@ movhi
 3941 0510 120C     		lsrs	r2, r2, #16
 3942 0512 2270     		strb	r2, [r4]
 3943 0514 A4E5     		b	.L204
 3944              	.LVL404:
 3945              	.L202:
 683:Drivers/Radio/Src/MY_NRF24.c ****     }
 3946              		.loc 1 683 9 is_stmt 1 view .LVU849
 3947 0516 07AC     		add	r4, sp, #28
 3948 0518 314D     		ldr	r5, .L223+44
 3949 051a 0FCD     		ldmia	r5!, {r0, r1, r2, r3}
 3950              	.LVL405:
 683:Drivers/Radio/Src/MY_NRF24.c ****     }
 3951              		.loc 1 683 9 is_stmt 0 view .LVU850
 3952 051c 0FC4     		stmia	r4!, {r0, r1, r2, r3}
 3953 051e 2B68     		ldr	r3, [r5]
 3954 0520 2360     		str	r3, [r4]
 3955 0522 9DE5     		b	.L204
 3956              	.LVL406:
 3957              	.L205:
 725:Drivers/Radio/Src/MY_NRF24.c ****     HAL_UART_Transmit(&nrf24_huart, (uint8_t *)uartTxBuf, strlen(uartTxBuf),
 3958              		.loc 1 725 9 is_stmt 1 view .LVU851
ARM GAS  C:\Users\sangt\AppData\Local\Temp\cc6s9Yz8.s 			page 91


 3959 0524 0DF11C0C 		add	ip, sp, #28
 3960 0528 2E4D     		ldr	r5, .L223+48
 3961 052a 0FCD     		ldmia	r5!, {r0, r1, r2, r3}
 3962              	.LVL407:
 725:Drivers/Radio/Src/MY_NRF24.c ****     HAL_UART_Transmit(&nrf24_huart, (uint8_t *)uartTxBuf, strlen(uartTxBuf),
 3963              		.loc 1 725 9 is_stmt 0 view .LVU852
 3964 052c ACE80F00 		stmia	ip!, {r0, r1, r2, r3}
 3965 0530 95E80300 		ldm	r5, {r0, r1}
 3966 0534 4CF8040B 		str	r0, [ip], #4
 3967 0538 2CF8021B 		strh	r1, [ip], #2	@ movhi
 3968 053c 090C     		lsrs	r1, r1, #16
 3969 053e 8CF80010 		strb	r1, [ip]
 3970 0542 13E6     		b	.L206
 3971              	.LVL408:
 3972              	.L216:
 731:Drivers/Radio/Src/MY_NRF24.c ****     else if (reg8Val == 1)
 3973              		.loc 1 731 9 is_stmt 1 view .LVU853
 3974 0544 07AC     		add	r4, sp, #28
 3975 0546 284D     		ldr	r5, .L223+52
 3976 0548 0FCD     		ldmia	r5!, {r0, r1, r2, r3}
 3977              	.LVL409:
 731:Drivers/Radio/Src/MY_NRF24.c ****     else if (reg8Val == 1)
 3978              		.loc 1 731 9 is_stmt 0 view .LVU854
 3979 054a 0FC4     		stmia	r4!, {r0, r1, r2, r3}
 3980 054c 2B68     		ldr	r3, [r5]
 3981 054e 2360     		str	r3, [r4]
 3982 0550 24E6     		b	.L208
 3983              	.LVL410:
 3984              	.L217:
 733:Drivers/Radio/Src/MY_NRF24.c ****     else if (reg8Val == 2)
 3985              		.loc 1 733 9 is_stmt 1 view .LVU855
 3986 0552 07AC     		add	r4, sp, #28
 3987 0554 254D     		ldr	r5, .L223+56
 3988 0556 0FCD     		ldmia	r5!, {r0, r1, r2, r3}
 3989              	.LVL411:
 733:Drivers/Radio/Src/MY_NRF24.c ****     else if (reg8Val == 2)
 3990              		.loc 1 733 9 is_stmt 0 view .LVU856
 3991 0558 0FC4     		stmia	r4!, {r0, r1, r2, r3}
 3992 055a 2B68     		ldr	r3, [r5]
 3993 055c 2360     		str	r3, [r4]
 3994 055e 1DE6     		b	.L208
 3995              	.LVL412:
 3996              	.L218:
 735:Drivers/Radio/Src/MY_NRF24.c ****     else if (reg8Val == 3)
 3997              		.loc 1 735 9 is_stmt 1 view .LVU857
 3998 0560 07AC     		add	r4, sp, #28
 3999 0562 234D     		ldr	r5, .L223+60
