ARM GAS  C:\Users\sangt\AppData\Local\Temp\ccJ72Wmt.s 			page 1


   1              		.cpu cortex-m3
   2              		.arch armv7-m
   3              		.fpu softvfp
   4              		.eabi_attribute 20, 1
   5              		.eabi_attribute 21, 1
   6              		.eabi_attribute 23, 3
   7              		.eabi_attribute 24, 1
   8              		.eabi_attribute 25, 1
   9              		.eabi_attribute 26, 1
  10              		.eabi_attribute 30, 1
  11              		.eabi_attribute 34, 1
  12              		.eabi_attribute 18, 4
  13              		.file	"stm32f2xx_hal_msp.c"
  14              		.text
  15              	.Ltext0:
  16              		.cfi_sections	.debug_frame
  17              		.section	.text.HAL_MspInit,"ax",%progbits
  18              		.align	1
  19              		.global	HAL_MspInit
  20              		.syntax unified
  21              		.thumb
  22              		.thumb_func
  24              	HAL_MspInit:
  25              	.LFB72:
  26              		.file 1 "Core/Src/stm32f2xx_hal_msp.c"
   1:Core/Src/stm32f2xx_hal_msp.c **** /* USER CODE BEGIN Header */
   2:Core/Src/stm32f2xx_hal_msp.c **** /**
   3:Core/Src/stm32f2xx_hal_msp.c ****   ******************************************************************************
   4:Core/Src/stm32f2xx_hal_msp.c ****   * @file         stm32f2xx_hal_msp.c
   5:Core/Src/stm32f2xx_hal_msp.c ****   * @brief        This file provides code for the MSP Initialization
   6:Core/Src/stm32f2xx_hal_msp.c ****   *               and de-Initialization codes.
   7:Core/Src/stm32f2xx_hal_msp.c ****   ******************************************************************************
   8:Core/Src/stm32f2xx_hal_msp.c ****   * @attention
   9:Core/Src/stm32f2xx_hal_msp.c ****   *
  10:Core/Src/stm32f2xx_hal_msp.c ****   * Copyright (c) 2022 STMicroelectronics.
  11:Core/Src/stm32f2xx_hal_msp.c ****   * All rights reserved.
  12:Core/Src/stm32f2xx_hal_msp.c ****   *
  13:Core/Src/stm32f2xx_hal_msp.c ****   * This software is licensed under terms that can be found in the LICENSE file
  14:Core/Src/stm32f2xx_hal_msp.c ****   * in the root directory of this software component.
  15:Core/Src/stm32f2xx_hal_msp.c ****   * If no LICENSE file comes with this software, it is provided AS-IS.
  16:Core/Src/stm32f2xx_hal_msp.c ****   *
  17:Core/Src/stm32f2xx_hal_msp.c ****   ******************************************************************************
  18:Core/Src/stm32f2xx_hal_msp.c ****   */
  19:Core/Src/stm32f2xx_hal_msp.c **** /* USER CODE END Header */
  20:Core/Src/stm32f2xx_hal_msp.c **** 
  21:Core/Src/stm32f2xx_hal_msp.c **** /* Includes ------------------------------------------------------------------*/
  22:Core/Src/stm32f2xx_hal_msp.c **** #include "main.h"
  23:Core/Src/stm32f2xx_hal_msp.c **** /* USER CODE BEGIN Includes */
  24:Core/Src/stm32f2xx_hal_msp.c **** 
  25:Core/Src/stm32f2xx_hal_msp.c **** /* USER CODE END Includes */
  26:Core/Src/stm32f2xx_hal_msp.c **** extern DMA_HandleTypeDef hdma_adc2;
  27:Core/Src/stm32f2xx_hal_msp.c **** 
  28:Core/Src/stm32f2xx_hal_msp.c **** extern DMA_HandleTypeDef hdma_usart3_rx;
  29:Core/Src/stm32f2xx_hal_msp.c **** 
  30:Core/Src/stm32f2xx_hal_msp.c **** extern DMA_HandleTypeDef hdma_usart3_tx;
  31:Core/Src/stm32f2xx_hal_msp.c **** 
  32:Core/Src/stm32f2xx_hal_msp.c **** /* Private typedef -----------------------------------------------------------*/
ARM GAS  C:\Users\sangt\AppData\Local\Temp\ccJ72Wmt.s 			page 2


  33:Core/Src/stm32f2xx_hal_msp.c **** /* USER CODE BEGIN TD */
  34:Core/Src/stm32f2xx_hal_msp.c **** 
  35:Core/Src/stm32f2xx_hal_msp.c **** /* USER CODE END TD */
  36:Core/Src/stm32f2xx_hal_msp.c **** 
  37:Core/Src/stm32f2xx_hal_msp.c **** /* Private define ------------------------------------------------------------*/
  38:Core/Src/stm32f2xx_hal_msp.c **** /* USER CODE BEGIN Define */
  39:Core/Src/stm32f2xx_hal_msp.c **** 
  40:Core/Src/stm32f2xx_hal_msp.c **** /* USER CODE END Define */
  41:Core/Src/stm32f2xx_hal_msp.c **** 
  42:Core/Src/stm32f2xx_hal_msp.c **** /* Private macro -------------------------------------------------------------*/
  43:Core/Src/stm32f2xx_hal_msp.c **** /* USER CODE BEGIN Macro */
  44:Core/Src/stm32f2xx_hal_msp.c **** 
  45:Core/Src/stm32f2xx_hal_msp.c **** /* USER CODE END Macro */
  46:Core/Src/stm32f2xx_hal_msp.c **** 
  47:Core/Src/stm32f2xx_hal_msp.c **** /* Private variables ---------------------------------------------------------*/
  48:Core/Src/stm32f2xx_hal_msp.c **** /* USER CODE BEGIN PV */
  49:Core/Src/stm32f2xx_hal_msp.c **** 
  50:Core/Src/stm32f2xx_hal_msp.c **** /* USER CODE END PV */
  51:Core/Src/stm32f2xx_hal_msp.c **** 
  52:Core/Src/stm32f2xx_hal_msp.c **** /* Private function prototypes -----------------------------------------------*/
  53:Core/Src/stm32f2xx_hal_msp.c **** /* USER CODE BEGIN PFP */
  54:Core/Src/stm32f2xx_hal_msp.c **** 
  55:Core/Src/stm32f2xx_hal_msp.c **** /* USER CODE END PFP */
  56:Core/Src/stm32f2xx_hal_msp.c **** 
  57:Core/Src/stm32f2xx_hal_msp.c **** /* External functions --------------------------------------------------------*/
  58:Core/Src/stm32f2xx_hal_msp.c **** /* USER CODE BEGIN ExternalFunctions */
  59:Core/Src/stm32f2xx_hal_msp.c **** 
  60:Core/Src/stm32f2xx_hal_msp.c **** /* USER CODE END ExternalFunctions */
  61:Core/Src/stm32f2xx_hal_msp.c **** 
  62:Core/Src/stm32f2xx_hal_msp.c **** /* USER CODE BEGIN 0 */
  63:Core/Src/stm32f2xx_hal_msp.c **** 
  64:Core/Src/stm32f2xx_hal_msp.c **** /* USER CODE END 0 */
  65:Core/Src/stm32f2xx_hal_msp.c **** /**
  66:Core/Src/stm32f2xx_hal_msp.c ****   * Initializes the Global MSP.
  67:Core/Src/stm32f2xx_hal_msp.c ****   */
  68:Core/Src/stm32f2xx_hal_msp.c **** void HAL_MspInit(void)
  69:Core/Src/stm32f2xx_hal_msp.c **** {
  27              		.loc 1 69 1 view -0
  28              		.cfi_startproc
  29              		@ args = 0, pretend = 0, frame = 8
  30              		@ frame_needed = 0, uses_anonymous_args = 0
  31 0000 00B5     		push	{lr}
  32              	.LCFI0:
  33              		.cfi_def_cfa_offset 4
  34              		.cfi_offset 14, -4
  35 0002 83B0     		sub	sp, sp, #12
  36              	.LCFI1:
  37              		.cfi_def_cfa_offset 16
  70:Core/Src/stm32f2xx_hal_msp.c ****   /* USER CODE BEGIN MspInit 0 */
  71:Core/Src/stm32f2xx_hal_msp.c **** 
  72:Core/Src/stm32f2xx_hal_msp.c ****   /* USER CODE END MspInit 0 */
  73:Core/Src/stm32f2xx_hal_msp.c **** 
  74:Core/Src/stm32f2xx_hal_msp.c ****   __HAL_RCC_SYSCFG_CLK_ENABLE();
  38              		.loc 1 74 3 view .LVU1
  39              	.LBB2:
  40              		.loc 1 74 3 view .LVU2
  41 0004 0022     		movs	r2, #0
ARM GAS  C:\Users\sangt\AppData\Local\Temp\ccJ72Wmt.s 			page 3


  42 0006 0092     		str	r2, [sp]
  43              		.loc 1 74 3 view .LVU3
  44 0008 0D4B     		ldr	r3, .L3
  45 000a 596C     		ldr	r1, [r3, #68]
  46 000c 41F48041 		orr	r1, r1, #16384
  47 0010 5964     		str	r1, [r3, #68]
  48              		.loc 1 74 3 view .LVU4
  49 0012 596C     		ldr	r1, [r3, #68]
  50 0014 01F48041 		and	r1, r1, #16384
  51 0018 0091     		str	r1, [sp]
  52              		.loc 1 74 3 view .LVU5
  53 001a 0099     		ldr	r1, [sp]
  54              	.LBE2:
  55              		.loc 1 74 3 view .LVU6
  75:Core/Src/stm32f2xx_hal_msp.c ****   __HAL_RCC_PWR_CLK_ENABLE();
  56              		.loc 1 75 3 view .LVU7
  57              	.LBB3:
  58              		.loc 1 75 3 view .LVU8
  59 001c 0192     		str	r2, [sp, #4]
  60              		.loc 1 75 3 view .LVU9
  61 001e 196C     		ldr	r1, [r3, #64]
  62 0020 41F08051 		orr	r1, r1, #268435456
  63 0024 1964     		str	r1, [r3, #64]
  64              		.loc 1 75 3 view .LVU10
  65 0026 1B6C     		ldr	r3, [r3, #64]
  66 0028 03F08053 		and	r3, r3, #268435456
  67 002c 0193     		str	r3, [sp, #4]
  68              		.loc 1 75 3 view .LVU11
  69 002e 019B     		ldr	r3, [sp, #4]
  70              	.LBE3:
  71              		.loc 1 75 3 view .LVU12
  76:Core/Src/stm32f2xx_hal_msp.c **** 
  77:Core/Src/stm32f2xx_hal_msp.c ****   /* System interrupt init*/
  78:Core/Src/stm32f2xx_hal_msp.c ****   /* PendSV_IRQn interrupt configuration */
  79:Core/Src/stm32f2xx_hal_msp.c ****   HAL_NVIC_SetPriority(PendSV_IRQn, 15, 0);
  72              		.loc 1 79 3 view .LVU13
  73 0030 0F21     		movs	r1, #15
  74 0032 6FF00100 		mvn	r0, #1
  75 0036 FFF7FEFF 		bl	HAL_NVIC_SetPriority
  76              	.LVL0:
  80:Core/Src/stm32f2xx_hal_msp.c **** 
  81:Core/Src/stm32f2xx_hal_msp.c ****   /* USER CODE BEGIN MspInit 1 */
  82:Core/Src/stm32f2xx_hal_msp.c **** 
  83:Core/Src/stm32f2xx_hal_msp.c ****   /* USER CODE END MspInit 1 */
  84:Core/Src/stm32f2xx_hal_msp.c **** }
  77              		.loc 1 84 1 is_stmt 0 view .LVU14
  78 003a 03B0     		add	sp, sp, #12
  79              	.LCFI2:
  80              		.cfi_def_cfa_offset 4
  81              		@ sp needed
  82 003c 5DF804FB 		ldr	pc, [sp], #4
  83              	.L4:
  84              		.align	2
  85              	.L3:
  86 0040 00380240 		.word	1073887232
  87              		.cfi_endproc
  88              	.LFE72:
ARM GAS  C:\Users\sangt\AppData\Local\Temp\ccJ72Wmt.s 			page 4


  90              		.section	.text.HAL_ADC_MspInit,"ax",%progbits
  91              		.align	1
  92              		.global	HAL_ADC_MspInit
  93              		.syntax unified
  94              		.thumb
  95              		.thumb_func
  97              	HAL_ADC_MspInit:
  98              	.LVL1:
  99              	.LFB73:
  85:Core/Src/stm32f2xx_hal_msp.c **** 
  86:Core/Src/stm32f2xx_hal_msp.c **** /**
  87:Core/Src/stm32f2xx_hal_msp.c **** * @brief ADC MSP Initialization
  88:Core/Src/stm32f2xx_hal_msp.c **** * This function configures the hardware resources used in this example
  89:Core/Src/stm32f2xx_hal_msp.c **** * @param hadc: ADC handle pointer
  90:Core/Src/stm32f2xx_hal_msp.c **** * @retval None
  91:Core/Src/stm32f2xx_hal_msp.c **** */
  92:Core/Src/stm32f2xx_hal_msp.c **** void HAL_ADC_MspInit(ADC_HandleTypeDef* hadc)
  93:Core/Src/stm32f2xx_hal_msp.c **** {
 100              		.loc 1 93 1 is_stmt 1 view -0
 101              		.cfi_startproc
 102              		@ args = 0, pretend = 0, frame = 32
 103              		@ frame_needed = 0, uses_anonymous_args = 0
 104              		.loc 1 93 1 is_stmt 0 view .LVU16
 105 0000 30B5     		push	{r4, r5, lr}
 106              	.LCFI3:
 107              		.cfi_def_cfa_offset 12
 108              		.cfi_offset 4, -12
 109              		.cfi_offset 5, -8
 110              		.cfi_offset 14, -4
 111 0002 89B0     		sub	sp, sp, #36
 112              	.LCFI4:
 113              		.cfi_def_cfa_offset 48
  94:Core/Src/stm32f2xx_hal_msp.c ****   GPIO_InitTypeDef GPIO_InitStruct = {0};
 114              		.loc 1 94 3 is_stmt 1 view .LVU17
 115              		.loc 1 94 20 is_stmt 0 view .LVU18
 116 0004 0023     		movs	r3, #0
 117 0006 0393     		str	r3, [sp, #12]
 118 0008 0493     		str	r3, [sp, #16]
 119 000a 0593     		str	r3, [sp, #20]
 120 000c 0693     		str	r3, [sp, #24]
 121 000e 0793     		str	r3, [sp, #28]
  95:Core/Src/stm32f2xx_hal_msp.c ****   if(hadc->Instance==ADC2)
 122              		.loc 1 95 3 is_stmt 1 view .LVU19
 123              		.loc 1 95 10 is_stmt 0 view .LVU20
 124 0010 0268     		ldr	r2, [r0]
 125              		.loc 1 95 5 view .LVU21
 126 0012 224B     		ldr	r3, .L11
 127 0014 9A42     		cmp	r2, r3
 128 0016 01D0     		beq	.L9
 129              	.LVL2:
 130              	.L5:
  96:Core/Src/stm32f2xx_hal_msp.c ****   {
  97:Core/Src/stm32f2xx_hal_msp.c ****   /* USER CODE BEGIN ADC2_MspInit 0 */
  98:Core/Src/stm32f2xx_hal_msp.c **** 
  99:Core/Src/stm32f2xx_hal_msp.c ****   /* USER CODE END ADC2_MspInit 0 */
 100:Core/Src/stm32f2xx_hal_msp.c ****     /* Peripheral clock enable */
 101:Core/Src/stm32f2xx_hal_msp.c ****     __HAL_RCC_ADC2_CLK_ENABLE();
ARM GAS  C:\Users\sangt\AppData\Local\Temp\ccJ72Wmt.s 			page 5


 102:Core/Src/stm32f2xx_hal_msp.c **** 
 103:Core/Src/stm32f2xx_hal_msp.c ****     __HAL_RCC_GPIOA_CLK_ENABLE();
 104:Core/Src/stm32f2xx_hal_msp.c ****     /**ADC2 GPIO Configuration
 105:Core/Src/stm32f2xx_hal_msp.c ****     PA4     ------> ADC2_IN4
 106:Core/Src/stm32f2xx_hal_msp.c ****     PA5     ------> ADC2_IN5
 107:Core/Src/stm32f2xx_hal_msp.c ****     PA6     ------> ADC2_IN6
 108:Core/Src/stm32f2xx_hal_msp.c ****     PA7     ------> ADC2_IN7
 109:Core/Src/stm32f2xx_hal_msp.c ****     */
 110:Core/Src/stm32f2xx_hal_msp.c ****     GPIO_InitStruct.Pin = Right_Ver_Pin|Right_Hor_Pin|Left_Ver_Pin|Left_Hor_Pin;
 111:Core/Src/stm32f2xx_hal_msp.c ****     GPIO_InitStruct.Mode = GPIO_MODE_ANALOG;
 112:Core/Src/stm32f2xx_hal_msp.c ****     GPIO_InitStruct.Pull = GPIO_NOPULL;
 113:Core/Src/stm32f2xx_hal_msp.c ****     HAL_GPIO_Init(GPIOA, &GPIO_InitStruct);
 114:Core/Src/stm32f2xx_hal_msp.c **** 
 115:Core/Src/stm32f2xx_hal_msp.c ****     /* ADC2 DMA Init */
 116:Core/Src/stm32f2xx_hal_msp.c ****     /* ADC2 Init */
 117:Core/Src/stm32f2xx_hal_msp.c ****     hdma_adc2.Instance = DMA2_Stream3;
 118:Core/Src/stm32f2xx_hal_msp.c ****     hdma_adc2.Init.Channel = DMA_CHANNEL_1;
 119:Core/Src/stm32f2xx_hal_msp.c ****     hdma_adc2.Init.Direction = DMA_PERIPH_TO_MEMORY;
 120:Core/Src/stm32f2xx_hal_msp.c ****     hdma_adc2.Init.PeriphInc = DMA_PINC_DISABLE;
 121:Core/Src/stm32f2xx_hal_msp.c ****     hdma_adc2.Init.MemInc = DMA_MINC_ENABLE;
 122:Core/Src/stm32f2xx_hal_msp.c ****     hdma_adc2.Init.PeriphDataAlignment = DMA_PDATAALIGN_HALFWORD;
 123:Core/Src/stm32f2xx_hal_msp.c ****     hdma_adc2.Init.MemDataAlignment = DMA_MDATAALIGN_HALFWORD;
 124:Core/Src/stm32f2xx_hal_msp.c ****     hdma_adc2.Init.Mode = DMA_CIRCULAR;
 125:Core/Src/stm32f2xx_hal_msp.c ****     hdma_adc2.Init.Priority = DMA_PRIORITY_LOW;
 126:Core/Src/stm32f2xx_hal_msp.c ****     hdma_adc2.Init.FIFOMode = DMA_FIFOMODE_DISABLE;
 127:Core/Src/stm32f2xx_hal_msp.c ****     if (HAL_DMA_Init(&hdma_adc2) != HAL_OK)
 128:Core/Src/stm32f2xx_hal_msp.c ****     {
 129:Core/Src/stm32f2xx_hal_msp.c ****       Error_Handler();
 130:Core/Src/stm32f2xx_hal_msp.c ****     }
 131:Core/Src/stm32f2xx_hal_msp.c **** 
 132:Core/Src/stm32f2xx_hal_msp.c ****     __HAL_LINKDMA(hadc,DMA_Handle,hdma_adc2);
 133:Core/Src/stm32f2xx_hal_msp.c **** 
 134:Core/Src/stm32f2xx_hal_msp.c ****   /* USER CODE BEGIN ADC2_MspInit 1 */
 135:Core/Src/stm32f2xx_hal_msp.c **** 
 136:Core/Src/stm32f2xx_hal_msp.c ****   /* USER CODE END ADC2_MspInit 1 */
 137:Core/Src/stm32f2xx_hal_msp.c ****   }
 138:Core/Src/stm32f2xx_hal_msp.c **** 
 139:Core/Src/stm32f2xx_hal_msp.c **** }
 131              		.loc 1 139 1 view .LVU22
 132 0018 09B0     		add	sp, sp, #36
 133              	.LCFI5:
 134              		.cfi_remember_state
 135              		.cfi_def_cfa_offset 12
 136              		@ sp needed
 137 001a 30BD     		pop	{r4, r5, pc}
 138              	.LVL3:
 139              	.L9:
 140              	.LCFI6:
 141              		.cfi_restore_state
 142              		.loc 1 139 1 view .LVU23
 143 001c 0446     		mov	r4, r0
 101:Core/Src/stm32f2xx_hal_msp.c **** 
 144              		.loc 1 101 5 is_stmt 1 view .LVU24
 145              	.LBB4:
 101:Core/Src/stm32f2xx_hal_msp.c **** 
 146              		.loc 1 101 5 view .LVU25
 147 001e 0025     		movs	r5, #0
ARM GAS  C:\Users\sangt\AppData\Local\Temp\ccJ72Wmt.s 			page 6


 148 0020 0195     		str	r5, [sp, #4]
 101:Core/Src/stm32f2xx_hal_msp.c **** 
 149              		.loc 1 101 5 view .LVU26
 150 0022 1F4B     		ldr	r3, .L11+4
 151 0024 5A6C     		ldr	r2, [r3, #68]
 152 0026 42F40072 		orr	r2, r2, #512
 153 002a 5A64     		str	r2, [r3, #68]
 101:Core/Src/stm32f2xx_hal_msp.c **** 
 154              		.loc 1 101 5 view .LVU27
 155 002c 5A6C     		ldr	r2, [r3, #68]
 156 002e 02F40072 		and	r2, r2, #512
 157 0032 0192     		str	r2, [sp, #4]
 101:Core/Src/stm32f2xx_hal_msp.c **** 
 158              		.loc 1 101 5 view .LVU28
 159 0034 019A     		ldr	r2, [sp, #4]
 160              	.LBE4:
 101:Core/Src/stm32f2xx_hal_msp.c **** 
 161              		.loc 1 101 5 view .LVU29
 103:Core/Src/stm32f2xx_hal_msp.c ****     /**ADC2 GPIO Configuration
 162              		.loc 1 103 5 view .LVU30
 163              	.LBB5:
 103:Core/Src/stm32f2xx_hal_msp.c ****     /**ADC2 GPIO Configuration
 164              		.loc 1 103 5 view .LVU31
 165 0036 0295     		str	r5, [sp, #8]
 103:Core/Src/stm32f2xx_hal_msp.c ****     /**ADC2 GPIO Configuration
 166              		.loc 1 103 5 view .LVU32
 167 0038 1A6B     		ldr	r2, [r3, #48]
 168 003a 42F00102 		orr	r2, r2, #1
 169 003e 1A63     		str	r2, [r3, #48]
 103:Core/Src/stm32f2xx_hal_msp.c ****     /**ADC2 GPIO Configuration
 170              		.loc 1 103 5 view .LVU33
 171 0040 1B6B     		ldr	r3, [r3, #48]
 172 0042 03F00103 		and	r3, r3, #1
 173 0046 0293     		str	r3, [sp, #8]
 103:Core/Src/stm32f2xx_hal_msp.c ****     /**ADC2 GPIO Configuration
 174              		.loc 1 103 5 view .LVU34
 175 0048 029B     		ldr	r3, [sp, #8]
 176              	.LBE5:
 103:Core/Src/stm32f2xx_hal_msp.c ****     /**ADC2 GPIO Configuration
 177              		.loc 1 103 5 view .LVU35
 110:Core/Src/stm32f2xx_hal_msp.c ****     GPIO_InitStruct.Mode = GPIO_MODE_ANALOG;
 178              		.loc 1 110 5 view .LVU36
 110:Core/Src/stm32f2xx_hal_msp.c ****     GPIO_InitStruct.Mode = GPIO_MODE_ANALOG;
 179              		.loc 1 110 25 is_stmt 0 view .LVU37
 180 004a F023     		movs	r3, #240
 181 004c 0393     		str	r3, [sp, #12]
 111:Core/Src/stm32f2xx_hal_msp.c ****     GPIO_InitStruct.Pull = GPIO_NOPULL;
 182              		.loc 1 111 5 is_stmt 1 view .LVU38
 111:Core/Src/stm32f2xx_hal_msp.c ****     GPIO_InitStruct.Pull = GPIO_NOPULL;
 183              		.loc 1 111 26 is_stmt 0 view .LVU39
 184 004e 0323     		movs	r3, #3
 185 0050 0493     		str	r3, [sp, #16]
 112:Core/Src/stm32f2xx_hal_msp.c ****     HAL_GPIO_Init(GPIOA, &GPIO_InitStruct);
 186              		.loc 1 112 5 is_stmt 1 view .LVU40
 113:Core/Src/stm32f2xx_hal_msp.c **** 
 187              		.loc 1 113 5 view .LVU41
 188 0052 03A9     		add	r1, sp, #12
ARM GAS  C:\Users\sangt\AppData\Local\Temp\ccJ72Wmt.s 			page 7


 189 0054 1348     		ldr	r0, .L11+8
 190              	.LVL4:
 113:Core/Src/stm32f2xx_hal_msp.c **** 
 191              		.loc 1 113 5 is_stmt 0 view .LVU42
 192 0056 FFF7FEFF 		bl	HAL_GPIO_Init
 193              	.LVL5:
 117:Core/Src/stm32f2xx_hal_msp.c ****     hdma_adc2.Init.Channel = DMA_CHANNEL_1;
 194              		.loc 1 117 5 is_stmt 1 view .LVU43
 117:Core/Src/stm32f2xx_hal_msp.c ****     hdma_adc2.Init.Channel = DMA_CHANNEL_1;
 195              		.loc 1 117 24 is_stmt 0 view .LVU44
 196 005a 1348     		ldr	r0, .L11+12
 197 005c 134B     		ldr	r3, .L11+16
 198 005e 0360     		str	r3, [r0]
 118:Core/Src/stm32f2xx_hal_msp.c ****     hdma_adc2.Init.Direction = DMA_PERIPH_TO_MEMORY;
 199              		.loc 1 118 5 is_stmt 1 view .LVU45
 118:Core/Src/stm32f2xx_hal_msp.c ****     hdma_adc2.Init.Direction = DMA_PERIPH_TO_MEMORY;
 200              		.loc 1 118 28 is_stmt 0 view .LVU46
 201 0060 4FF00073 		mov	r3, #33554432
 202 0064 4360     		str	r3, [r0, #4]
 119:Core/Src/stm32f2xx_hal_msp.c ****     hdma_adc2.Init.PeriphInc = DMA_PINC_DISABLE;
 203              		.loc 1 119 5 is_stmt 1 view .LVU47
 119:Core/Src/stm32f2xx_hal_msp.c ****     hdma_adc2.Init.PeriphInc = DMA_PINC_DISABLE;
 204              		.loc 1 119 30 is_stmt 0 view .LVU48
 205 0066 8560     		str	r5, [r0, #8]
 120:Core/Src/stm32f2xx_hal_msp.c ****     hdma_adc2.Init.MemInc = DMA_MINC_ENABLE;
 206              		.loc 1 120 5 is_stmt 1 view .LVU49
 120:Core/Src/stm32f2xx_hal_msp.c ****     hdma_adc2.Init.MemInc = DMA_MINC_ENABLE;
 207              		.loc 1 120 30 is_stmt 0 view .LVU50
 208 0068 C560     		str	r5, [r0, #12]
 121:Core/Src/stm32f2xx_hal_msp.c ****     hdma_adc2.Init.PeriphDataAlignment = DMA_PDATAALIGN_HALFWORD;
 209              		.loc 1 121 5 is_stmt 1 view .LVU51
 121:Core/Src/stm32f2xx_hal_msp.c ****     hdma_adc2.Init.PeriphDataAlignment = DMA_PDATAALIGN_HALFWORD;
 210              		.loc 1 121 27 is_stmt 0 view .LVU52
 211 006a 4FF48063 		mov	r3, #1024
 212 006e 0361     		str	r3, [r0, #16]
 122:Core/Src/stm32f2xx_hal_msp.c ****     hdma_adc2.Init.MemDataAlignment = DMA_MDATAALIGN_HALFWORD;
 213              		.loc 1 122 5 is_stmt 1 view .LVU53
 122:Core/Src/stm32f2xx_hal_msp.c ****     hdma_adc2.Init.MemDataAlignment = DMA_MDATAALIGN_HALFWORD;
 214              		.loc 1 122 40 is_stmt 0 view .LVU54
 215 0070 4FF40063 		mov	r3, #2048
 216 0074 4361     		str	r3, [r0, #20]
 123:Core/Src/stm32f2xx_hal_msp.c ****     hdma_adc2.Init.Mode = DMA_CIRCULAR;
 217              		.loc 1 123 5 is_stmt 1 view .LVU55
 123:Core/Src/stm32f2xx_hal_msp.c ****     hdma_adc2.Init.Mode = DMA_CIRCULAR;
 218              		.loc 1 123 37 is_stmt 0 view .LVU56
 219 0076 4FF40053 		mov	r3, #8192
 220 007a 8361     		str	r3, [r0, #24]
 124:Core/Src/stm32f2xx_hal_msp.c ****     hdma_adc2.Init.Priority = DMA_PRIORITY_LOW;
 221              		.loc 1 124 5 is_stmt 1 view .LVU57
 124:Core/Src/stm32f2xx_hal_msp.c ****     hdma_adc2.Init.Priority = DMA_PRIORITY_LOW;
 222              		.loc 1 124 25 is_stmt 0 view .LVU58
 223 007c 4FF48073 		mov	r3, #256
 224 0080 C361     		str	r3, [r0, #28]
 125:Core/Src/stm32f2xx_hal_msp.c ****     hdma_adc2.Init.FIFOMode = DMA_FIFOMODE_DISABLE;
 225              		.loc 1 125 5 is_stmt 1 view .LVU59
 125:Core/Src/stm32f2xx_hal_msp.c ****     hdma_adc2.Init.FIFOMode = DMA_FIFOMODE_DISABLE;
 226              		.loc 1 125 29 is_stmt 0 view .LVU60
ARM GAS  C:\Users\sangt\AppData\Local\Temp\ccJ72Wmt.s 			page 8


 227 0082 0562     		str	r5, [r0, #32]
 126:Core/Src/stm32f2xx_hal_msp.c ****     if (HAL_DMA_Init(&hdma_adc2) != HAL_OK)
 228              		.loc 1 126 5 is_stmt 1 view .LVU61
 126:Core/Src/stm32f2xx_hal_msp.c ****     if (HAL_DMA_Init(&hdma_adc2) != HAL_OK)
 229              		.loc 1 126 29 is_stmt 0 view .LVU62
 230 0084 4562     		str	r5, [r0, #36]
 127:Core/Src/stm32f2xx_hal_msp.c ****     {
 231              		.loc 1 127 5 is_stmt 1 view .LVU63
 127:Core/Src/stm32f2xx_hal_msp.c ****     {
 232              		.loc 1 127 9 is_stmt 0 view .LVU64
 233 0086 FFF7FEFF 		bl	HAL_DMA_Init
 234              	.LVL6:
 127:Core/Src/stm32f2xx_hal_msp.c ****     {
 235              		.loc 1 127 8 view .LVU65
 236 008a 18B9     		cbnz	r0, .L10
 237              	.L7:
 132:Core/Src/stm32f2xx_hal_msp.c **** 
 238              		.loc 1 132 5 is_stmt 1 view .LVU66
 132:Core/Src/stm32f2xx_hal_msp.c **** 
 239              		.loc 1 132 5 view .LVU67
 240 008c 064B     		ldr	r3, .L11+12
 241 008e A363     		str	r3, [r4, #56]
 132:Core/Src/stm32f2xx_hal_msp.c **** 
 242              		.loc 1 132 5 view .LVU68
 243 0090 9C63     		str	r4, [r3, #56]
 132:Core/Src/stm32f2xx_hal_msp.c **** 
 244              		.loc 1 132 5 view .LVU69
 245              		.loc 1 139 1 is_stmt 0 view .LVU70
 246 0092 C1E7     		b	.L5
 247              	.L10:
 129:Core/Src/stm32f2xx_hal_msp.c ****     }
 248              		.loc 1 129 7 is_stmt 1 view .LVU71
 249 0094 FFF7FEFF 		bl	Error_Handler
 250              	.LVL7:
 251 0098 F8E7     		b	.L7
 252              	.L12:
 253 009a 00BF     		.align	2
 254              	.L11:
 255 009c 00210140 		.word	1073815808
 256 00a0 00380240 		.word	1073887232
 257 00a4 00000240 		.word	1073872896
 258 00a8 00000000 		.word	hdma_adc2
 259 00ac 58640240 		.word	1073898584
 260              		.cfi_endproc
 261              	.LFE73:
 263              		.section	.text.HAL_ADC_MspDeInit,"ax",%progbits
 264              		.align	1
 265              		.global	HAL_ADC_MspDeInit
 266              		.syntax unified
 267              		.thumb
 268              		.thumb_func
 270              	HAL_ADC_MspDeInit:
 271              	.LVL8:
 272              	.LFB74:
 140:Core/Src/stm32f2xx_hal_msp.c **** 
 141:Core/Src/stm32f2xx_hal_msp.c **** /**
 142:Core/Src/stm32f2xx_hal_msp.c **** * @brief ADC MSP De-Initialization
ARM GAS  C:\Users\sangt\AppData\Local\Temp\ccJ72Wmt.s 			page 9


 143:Core/Src/stm32f2xx_hal_msp.c **** * This function freeze the hardware resources used in this example
 144:Core/Src/stm32f2xx_hal_msp.c **** * @param hadc: ADC handle pointer
 145:Core/Src/stm32f2xx_hal_msp.c **** * @retval None
 146:Core/Src/stm32f2xx_hal_msp.c **** */
 147:Core/Src/stm32f2xx_hal_msp.c **** void HAL_ADC_MspDeInit(ADC_HandleTypeDef* hadc)
 148:Core/Src/stm32f2xx_hal_msp.c **** {
 273              		.loc 1 148 1 view -0
 274              		.cfi_startproc
 275              		@ args = 0, pretend = 0, frame = 0
 276              		@ frame_needed = 0, uses_anonymous_args = 0
 149:Core/Src/stm32f2xx_hal_msp.c ****   if(hadc->Instance==ADC2)
 277              		.loc 1 149 3 view .LVU73
 278              		.loc 1 149 10 is_stmt 0 view .LVU74
 279 0000 0268     		ldr	r2, [r0]
 280              		.loc 1 149 5 view .LVU75
 281 0002 094B     		ldr	r3, .L20
 282 0004 9A42     		cmp	r2, r3
 283 0006 00D0     		beq	.L19
 284 0008 7047     		bx	lr
 285              	.L19:
 148:Core/Src/stm32f2xx_hal_msp.c ****   if(hadc->Instance==ADC2)
 286              		.loc 1 148 1 view .LVU76
 287 000a 10B5     		push	{r4, lr}
 288              	.LCFI7:
 289              		.cfi_def_cfa_offset 8
 290              		.cfi_offset 4, -8
 291              		.cfi_offset 14, -4
 292 000c 0446     		mov	r4, r0
 150:Core/Src/stm32f2xx_hal_msp.c ****   {
 151:Core/Src/stm32f2xx_hal_msp.c ****   /* USER CODE BEGIN ADC2_MspDeInit 0 */
 152:Core/Src/stm32f2xx_hal_msp.c **** 
 153:Core/Src/stm32f2xx_hal_msp.c ****   /* USER CODE END ADC2_MspDeInit 0 */
 154:Core/Src/stm32f2xx_hal_msp.c ****     /* Peripheral clock disable */
 155:Core/Src/stm32f2xx_hal_msp.c ****     __HAL_RCC_ADC2_CLK_DISABLE();
 293              		.loc 1 155 5 is_stmt 1 view .LVU77
 294 000e 074A     		ldr	r2, .L20+4
 295 0010 536C     		ldr	r3, [r2, #68]
 296 0012 23F40073 		bic	r3, r3, #512
 297 0016 5364     		str	r3, [r2, #68]
 156:Core/Src/stm32f2xx_hal_msp.c **** 
 157:Core/Src/stm32f2xx_hal_msp.c ****     /**ADC2 GPIO Configuration
 158:Core/Src/stm32f2xx_hal_msp.c ****     PA4     ------> ADC2_IN4
 159:Core/Src/stm32f2xx_hal_msp.c ****     PA5     ------> ADC2_IN5
 160:Core/Src/stm32f2xx_hal_msp.c ****     PA6     ------> ADC2_IN6
 161:Core/Src/stm32f2xx_hal_msp.c ****     PA7     ------> ADC2_IN7
 162:Core/Src/stm32f2xx_hal_msp.c ****     */
 163:Core/Src/stm32f2xx_hal_msp.c ****     HAL_GPIO_DeInit(GPIOA, Right_Ver_Pin|Right_Hor_Pin|Left_Ver_Pin|Left_Hor_Pin);
 298              		.loc 1 163 5 view .LVU78
 299 0018 F021     		movs	r1, #240
 300 001a 0548     		ldr	r0, .L20+8
 301              	.LVL9:
 302              		.loc 1 163 5 is_stmt 0 view .LVU79
 303 001c FFF7FEFF 		bl	HAL_GPIO_DeInit
 304              	.LVL10:
 164:Core/Src/stm32f2xx_hal_msp.c **** 
 165:Core/Src/stm32f2xx_hal_msp.c ****     /* ADC2 DMA DeInit */
 166:Core/Src/stm32f2xx_hal_msp.c ****     HAL_DMA_DeInit(hadc->DMA_Handle);
ARM GAS  C:\Users\sangt\AppData\Local\Temp\ccJ72Wmt.s 			page 10


 305              		.loc 1 166 5 is_stmt 1 view .LVU80
 306 0020 A06B     		ldr	r0, [r4, #56]
 307 0022 FFF7FEFF 		bl	HAL_DMA_DeInit
 308              	.LVL11:
 167:Core/Src/stm32f2xx_hal_msp.c ****   /* USER CODE BEGIN ADC2_MspDeInit 1 */
 168:Core/Src/stm32f2xx_hal_msp.c **** 
 169:Core/Src/stm32f2xx_hal_msp.c ****   /* USER CODE END ADC2_MspDeInit 1 */
 170:Core/Src/stm32f2xx_hal_msp.c ****   }
 171:Core/Src/stm32f2xx_hal_msp.c **** 
 172:Core/Src/stm32f2xx_hal_msp.c **** }
 309              		.loc 1 172 1 is_stmt 0 view .LVU81
 310 0026 10BD     		pop	{r4, pc}
 311              	.LVL12:
 312              	.L21:
 313              		.loc 1 172 1 view .LVU82
 314              		.align	2
 315              	.L20:
 316 0028 00210140 		.word	1073815808
 317 002c 00380240 		.word	1073887232
 318 0030 00000240 		.word	1073872896
 319              		.cfi_endproc
 320              	.LFE74:
 322              		.section	.text.HAL_I2C_MspInit,"ax",%progbits
 323              		.align	1
 324              		.global	HAL_I2C_MspInit
 325              		.syntax unified
 326              		.thumb
 327              		.thumb_func
 329              	HAL_I2C_MspInit:
 330              	.LVL13:
 331              	.LFB75:
 173:Core/Src/stm32f2xx_hal_msp.c **** 
 174:Core/Src/stm32f2xx_hal_msp.c **** /**
 175:Core/Src/stm32f2xx_hal_msp.c **** * @brief I2C MSP Initialization
 176:Core/Src/stm32f2xx_hal_msp.c **** * This function configures the hardware resources used in this example
 177:Core/Src/stm32f2xx_hal_msp.c **** * @param hi2c: I2C handle pointer
 178:Core/Src/stm32f2xx_hal_msp.c **** * @retval None
 179:Core/Src/stm32f2xx_hal_msp.c **** */
 180:Core/Src/stm32f2xx_hal_msp.c **** void HAL_I2C_MspInit(I2C_HandleTypeDef* hi2c)
 181:Core/Src/stm32f2xx_hal_msp.c **** {
 332              		.loc 1 181 1 is_stmt 1 view -0
 333              		.cfi_startproc
 334              		@ args = 0, pretend = 0, frame = 32
 335              		@ frame_needed = 0, uses_anonymous_args = 0
 336              		.loc 1 181 1 is_stmt 0 view .LVU84
 337 0000 30B5     		push	{r4, r5, lr}
 338              	.LCFI8:
 339              		.cfi_def_cfa_offset 12
 340              		.cfi_offset 4, -12
 341              		.cfi_offset 5, -8
 342              		.cfi_offset 14, -4
 343 0002 89B0     		sub	sp, sp, #36
 344              	.LCFI9:
 345              		.cfi_def_cfa_offset 48
 182:Core/Src/stm32f2xx_hal_msp.c ****   GPIO_InitTypeDef GPIO_InitStruct = {0};
 346              		.loc 1 182 3 is_stmt 1 view .LVU85
 347              		.loc 1 182 20 is_stmt 0 view .LVU86
ARM GAS  C:\Users\sangt\AppData\Local\Temp\ccJ72Wmt.s 			page 11


 348 0004 0023     		movs	r3, #0
 349 0006 0393     		str	r3, [sp, #12]
 350 0008 0493     		str	r3, [sp, #16]
 351 000a 0593     		str	r3, [sp, #20]
 352 000c 0693     		str	r3, [sp, #24]
 353 000e 0793     		str	r3, [sp, #28]
 183:Core/Src/stm32f2xx_hal_msp.c ****   if(hi2c->Instance==I2C1)
 354              		.loc 1 183 3 is_stmt 1 view .LVU87
 355              		.loc 1 183 10 is_stmt 0 view .LVU88
 356 0010 0268     		ldr	r2, [r0]
 357              		.loc 1 183 5 view .LVU89
 358 0012 144B     		ldr	r3, .L26
 359 0014 9A42     		cmp	r2, r3
 360 0016 01D0     		beq	.L25
 361              	.LVL14:
 362              	.L22:
 184:Core/Src/stm32f2xx_hal_msp.c ****   {
 185:Core/Src/stm32f2xx_hal_msp.c ****   /* USER CODE BEGIN I2C1_MspInit 0 */
 186:Core/Src/stm32f2xx_hal_msp.c **** 
 187:Core/Src/stm32f2xx_hal_msp.c ****   /* USER CODE END I2C1_MspInit 0 */
 188:Core/Src/stm32f2xx_hal_msp.c **** 
 189:Core/Src/stm32f2xx_hal_msp.c ****     __HAL_RCC_GPIOB_CLK_ENABLE();
 190:Core/Src/stm32f2xx_hal_msp.c ****     /**I2C1 GPIO Configuration
 191:Core/Src/stm32f2xx_hal_msp.c ****     PB6     ------> I2C1_SCL
 192:Core/Src/stm32f2xx_hal_msp.c ****     PB7     ------> I2C1_SDA
 193:Core/Src/stm32f2xx_hal_msp.c ****     */
 194:Core/Src/stm32f2xx_hal_msp.c ****     GPIO_InitStruct.Pin = OLED_SCL_Pin|OLED_SDA_Pin;
 195:Core/Src/stm32f2xx_hal_msp.c ****     GPIO_InitStruct.Mode = GPIO_MODE_AF_OD;
 196:Core/Src/stm32f2xx_hal_msp.c ****     GPIO_InitStruct.Pull = GPIO_NOPULL;
 197:Core/Src/stm32f2xx_hal_msp.c ****     GPIO_InitStruct.Speed = GPIO_SPEED_FREQ_VERY_HIGH;
 198:Core/Src/stm32f2xx_hal_msp.c ****     GPIO_InitStruct.Alternate = GPIO_AF4_I2C1;
 199:Core/Src/stm32f2xx_hal_msp.c ****     HAL_GPIO_Init(GPIOB, &GPIO_InitStruct);
 200:Core/Src/stm32f2xx_hal_msp.c **** 
 201:Core/Src/stm32f2xx_hal_msp.c ****     /* Peripheral clock enable */
 202:Core/Src/stm32f2xx_hal_msp.c ****     __HAL_RCC_I2C1_CLK_ENABLE();
 203:Core/Src/stm32f2xx_hal_msp.c ****   /* USER CODE BEGIN I2C1_MspInit 1 */
 204:Core/Src/stm32f2xx_hal_msp.c **** 
 205:Core/Src/stm32f2xx_hal_msp.c ****   /* USER CODE END I2C1_MspInit 1 */
 206:Core/Src/stm32f2xx_hal_msp.c ****   }
 207:Core/Src/stm32f2xx_hal_msp.c **** 
 208:Core/Src/stm32f2xx_hal_msp.c **** }
 363              		.loc 1 208 1 view .LVU90
 364 0018 09B0     		add	sp, sp, #36
 365              	.LCFI10:
 366              		.cfi_remember_state
 367              		.cfi_def_cfa_offset 12
 368              		@ sp needed
 369 001a 30BD     		pop	{r4, r5, pc}
 370              	.LVL15:
 371              	.L25:
 372              	.LCFI11:
 373              		.cfi_restore_state
 189:Core/Src/stm32f2xx_hal_msp.c ****     /**I2C1 GPIO Configuration
 374              		.loc 1 189 5 is_stmt 1 view .LVU91
 375              	.LBB6:
 189:Core/Src/stm32f2xx_hal_msp.c ****     /**I2C1 GPIO Configuration
 376              		.loc 1 189 5 view .LVU92
ARM GAS  C:\Users\sangt\AppData\Local\Temp\ccJ72Wmt.s 			page 12


 377 001c 0025     		movs	r5, #0
 378 001e 0195     		str	r5, [sp, #4]
 189:Core/Src/stm32f2xx_hal_msp.c ****     /**I2C1 GPIO Configuration
 379              		.loc 1 189 5 view .LVU93
 380 0020 114C     		ldr	r4, .L26+4
 381 0022 236B     		ldr	r3, [r4, #48]
 382 0024 43F00203 		orr	r3, r3, #2
 383 0028 2363     		str	r3, [r4, #48]
 189:Core/Src/stm32f2xx_hal_msp.c ****     /**I2C1 GPIO Configuration
 384              		.loc 1 189 5 view .LVU94
 385 002a 236B     		ldr	r3, [r4, #48]
 386 002c 03F00203 		and	r3, r3, #2
 387 0030 0193     		str	r3, [sp, #4]
 189:Core/Src/stm32f2xx_hal_msp.c ****     /**I2C1 GPIO Configuration
 388              		.loc 1 189 5 view .LVU95
 389 0032 019B     		ldr	r3, [sp, #4]
 390              	.LBE6:
 189:Core/Src/stm32f2xx_hal_msp.c ****     /**I2C1 GPIO Configuration
 391              		.loc 1 189 5 view .LVU96
 194:Core/Src/stm32f2xx_hal_msp.c ****     GPIO_InitStruct.Mode = GPIO_MODE_AF_OD;
 392              		.loc 1 194 5 view .LVU97
 194:Core/Src/stm32f2xx_hal_msp.c ****     GPIO_InitStruct.Mode = GPIO_MODE_AF_OD;
 393              		.loc 1 194 25 is_stmt 0 view .LVU98
 394 0034 C023     		movs	r3, #192
 395 0036 0393     		str	r3, [sp, #12]
 195:Core/Src/stm32f2xx_hal_msp.c ****     GPIO_InitStruct.Pull = GPIO_NOPULL;
 396              		.loc 1 195 5 is_stmt 1 view .LVU99
 195:Core/Src/stm32f2xx_hal_msp.c ****     GPIO_InitStruct.Pull = GPIO_NOPULL;
 397              		.loc 1 195 26 is_stmt 0 view .LVU100
 398 0038 1223     		movs	r3, #18
 399 003a 0493     		str	r3, [sp, #16]
 196:Core/Src/stm32f2xx_hal_msp.c ****     GPIO_InitStruct.Speed = GPIO_SPEED_FREQ_VERY_HIGH;
 400              		.loc 1 196 5 is_stmt 1 view .LVU101
 197:Core/Src/stm32f2xx_hal_msp.c ****     GPIO_InitStruct.Alternate = GPIO_AF4_I2C1;
 401              		.loc 1 197 5 view .LVU102
 197:Core/Src/stm32f2xx_hal_msp.c ****     GPIO_InitStruct.Alternate = GPIO_AF4_I2C1;
 402              		.loc 1 197 27 is_stmt 0 view .LVU103
 403 003c 0323     		movs	r3, #3
 404 003e 0693     		str	r3, [sp, #24]
 198:Core/Src/stm32f2xx_hal_msp.c ****     HAL_GPIO_Init(GPIOB, &GPIO_InitStruct);
 405              		.loc 1 198 5 is_stmt 1 view .LVU104
 198:Core/Src/stm32f2xx_hal_msp.c ****     HAL_GPIO_Init(GPIOB, &GPIO_InitStruct);
 406              		.loc 1 198 31 is_stmt 0 view .LVU105
 407 0040 0423     		movs	r3, #4
 408 0042 0793     		str	r3, [sp, #28]
 199:Core/Src/stm32f2xx_hal_msp.c **** 
 409              		.loc 1 199 5 is_stmt 1 view .LVU106
 410 0044 03A9     		add	r1, sp, #12
 411 0046 0948     		ldr	r0, .L26+8
 412              	.LVL16:
 199:Core/Src/stm32f2xx_hal_msp.c **** 
 413              		.loc 1 199 5 is_stmt 0 view .LVU107
 414 0048 FFF7FEFF 		bl	HAL_GPIO_Init
 415              	.LVL17:
 202:Core/Src/stm32f2xx_hal_msp.c ****   /* USER CODE BEGIN I2C1_MspInit 1 */
 416              		.loc 1 202 5 is_stmt 1 view .LVU108
 417              	.LBB7:
ARM GAS  C:\Users\sangt\AppData\Local\Temp\ccJ72Wmt.s 			page 13


 202:Core/Src/stm32f2xx_hal_msp.c ****   /* USER CODE BEGIN I2C1_MspInit 1 */
 418              		.loc 1 202 5 view .LVU109
 419 004c 0295     		str	r5, [sp, #8]
 202:Core/Src/stm32f2xx_hal_msp.c ****   /* USER CODE BEGIN I2C1_MspInit 1 */
 420              		.loc 1 202 5 view .LVU110
 421 004e 236C     		ldr	r3, [r4, #64]
 422 0050 43F40013 		orr	r3, r3, #2097152
 423 0054 2364     		str	r3, [r4, #64]
 202:Core/Src/stm32f2xx_hal_msp.c ****   /* USER CODE BEGIN I2C1_MspInit 1 */
 424              		.loc 1 202 5 view .LVU111
 425 0056 236C     		ldr	r3, [r4, #64]
 426 0058 03F40013 		and	r3, r3, #2097152
 427 005c 0293     		str	r3, [sp, #8]
 202:Core/Src/stm32f2xx_hal_msp.c ****   /* USER CODE BEGIN I2C1_MspInit 1 */
 428              		.loc 1 202 5 view .LVU112
 429 005e 029B     		ldr	r3, [sp, #8]
 430              	.LBE7:
 202:Core/Src/stm32f2xx_hal_msp.c ****   /* USER CODE BEGIN I2C1_MspInit 1 */
 431              		.loc 1 202 5 view .LVU113
 432              		.loc 1 208 1 is_stmt 0 view .LVU114
 433 0060 DAE7     		b	.L22
 434              	.L27:
 435 0062 00BF     		.align	2
 436              	.L26:
 437 0064 00540040 		.word	1073763328
 438 0068 00380240 		.word	1073887232
 439 006c 00040240 		.word	1073873920
 440              		.cfi_endproc
 441              	.LFE75:
 443              		.section	.text.HAL_I2C_MspDeInit,"ax",%progbits
 444              		.align	1
 445              		.global	HAL_I2C_MspDeInit
 446              		.syntax unified
 447              		.thumb
 448              		.thumb_func
 450              	HAL_I2C_MspDeInit:
 451              	.LVL18:
 452              	.LFB76:
 209:Core/Src/stm32f2xx_hal_msp.c **** 
 210:Core/Src/stm32f2xx_hal_msp.c **** /**
 211:Core/Src/stm32f2xx_hal_msp.c **** * @brief I2C MSP De-Initialization
 212:Core/Src/stm32f2xx_hal_msp.c **** * This function freeze the hardware resources used in this example
 213:Core/Src/stm32f2xx_hal_msp.c **** * @param hi2c: I2C handle pointer
 214:Core/Src/stm32f2xx_hal_msp.c **** * @retval None
 215:Core/Src/stm32f2xx_hal_msp.c **** */
 216:Core/Src/stm32f2xx_hal_msp.c **** void HAL_I2C_MspDeInit(I2C_HandleTypeDef* hi2c)
 217:Core/Src/stm32f2xx_hal_msp.c **** {
 453              		.loc 1 217 1 is_stmt 1 view -0
 454              		.cfi_startproc
 455              		@ args = 0, pretend = 0, frame = 0
 456              		@ frame_needed = 0, uses_anonymous_args = 0
 218:Core/Src/stm32f2xx_hal_msp.c ****   if(hi2c->Instance==I2C1)
 457              		.loc 1 218 3 view .LVU116
 458              		.loc 1 218 10 is_stmt 0 view .LVU117
 459 0000 0268     		ldr	r2, [r0]
 460              		.loc 1 218 5 view .LVU118
 461 0002 0A4B     		ldr	r3, .L35
ARM GAS  C:\Users\sangt\AppData\Local\Temp\ccJ72Wmt.s 			page 14


 462 0004 9A42     		cmp	r2, r3
 463 0006 00D0     		beq	.L34
 464 0008 7047     		bx	lr
 465              	.L34:
 217:Core/Src/stm32f2xx_hal_msp.c ****   if(hi2c->Instance==I2C1)
 466              		.loc 1 217 1 view .LVU119
 467 000a 10B5     		push	{r4, lr}
 468              	.LCFI12:
 469              		.cfi_def_cfa_offset 8
 470              		.cfi_offset 4, -8
 471              		.cfi_offset 14, -4
 219:Core/Src/stm32f2xx_hal_msp.c ****   {
 220:Core/Src/stm32f2xx_hal_msp.c ****   /* USER CODE BEGIN I2C1_MspDeInit 0 */
 221:Core/Src/stm32f2xx_hal_msp.c **** 
 222:Core/Src/stm32f2xx_hal_msp.c ****   /* USER CODE END I2C1_MspDeInit 0 */
 223:Core/Src/stm32f2xx_hal_msp.c ****     /* Peripheral clock disable */
 224:Core/Src/stm32f2xx_hal_msp.c ****     __HAL_RCC_I2C1_CLK_DISABLE();
 472              		.loc 1 224 5 is_stmt 1 view .LVU120
 473 000c 084A     		ldr	r2, .L35+4
 474 000e 136C     		ldr	r3, [r2, #64]
 475 0010 23F40013 		bic	r3, r3, #2097152
 476 0014 1364     		str	r3, [r2, #64]
 225:Core/Src/stm32f2xx_hal_msp.c **** 
 226:Core/Src/stm32f2xx_hal_msp.c ****     /**I2C1 GPIO Configuration
 227:Core/Src/stm32f2xx_hal_msp.c ****     PB6     ------> I2C1_SCL
 228:Core/Src/stm32f2xx_hal_msp.c ****     PB7     ------> I2C1_SDA
 229:Core/Src/stm32f2xx_hal_msp.c ****     */
 230:Core/Src/stm32f2xx_hal_msp.c ****     HAL_GPIO_DeInit(OLED_SCL_GPIO_Port, OLED_SCL_Pin);
 477              		.loc 1 230 5 view .LVU121
 478 0016 074C     		ldr	r4, .L35+8
 479 0018 4021     		movs	r1, #64
 480 001a 2046     		mov	r0, r4
 481              	.LVL19:
 482              		.loc 1 230 5 is_stmt 0 view .LVU122
 483 001c FFF7FEFF 		bl	HAL_GPIO_DeInit
 484              	.LVL20:
 231:Core/Src/stm32f2xx_hal_msp.c **** 
 232:Core/Src/stm32f2xx_hal_msp.c ****     HAL_GPIO_DeInit(OLED_SDA_GPIO_Port, OLED_SDA_Pin);
 485              		.loc 1 232 5 is_stmt 1 view .LVU123
 486 0020 8021     		movs	r1, #128
 487 0022 2046     		mov	r0, r4
 488 0024 FFF7FEFF 		bl	HAL_GPIO_DeInit
 489              	.LVL21:
 233:Core/Src/stm32f2xx_hal_msp.c **** 
 234:Core/Src/stm32f2xx_hal_msp.c ****   /* USER CODE BEGIN I2C1_MspDeInit 1 */
 235:Core/Src/stm32f2xx_hal_msp.c **** 
 236:Core/Src/stm32f2xx_hal_msp.c ****   /* USER CODE END I2C1_MspDeInit 1 */
 237:Core/Src/stm32f2xx_hal_msp.c ****   }
 238:Core/Src/stm32f2xx_hal_msp.c **** 
 239:Core/Src/stm32f2xx_hal_msp.c **** }
 490              		.loc 1 239 1 is_stmt 0 view .LVU124
 491 0028 10BD     		pop	{r4, pc}
 492              	.L36:
 493 002a 00BF     		.align	2
 494              	.L35:
 495 002c 00540040 		.word	1073763328
 496 0030 00380240 		.word	1073887232
ARM GAS  C:\Users\sangt\AppData\Local\Temp\ccJ72Wmt.s 			page 15


 497 0034 00040240 		.word	1073873920
 498              		.cfi_endproc
 499              	.LFE76:
 501              		.section	.text.HAL_SPI_MspInit,"ax",%progbits
 502              		.align	1
 503              		.global	HAL_SPI_MspInit
 504              		.syntax unified
 505              		.thumb
 506              		.thumb_func
 508              	HAL_SPI_MspInit:
 509              	.LVL22:
 510              	.LFB77:
 240:Core/Src/stm32f2xx_hal_msp.c **** 
 241:Core/Src/stm32f2xx_hal_msp.c **** /**
 242:Core/Src/stm32f2xx_hal_msp.c **** * @brief SPI MSP Initialization
 243:Core/Src/stm32f2xx_hal_msp.c **** * This function configures the hardware resources used in this example
 244:Core/Src/stm32f2xx_hal_msp.c **** * @param hspi: SPI handle pointer
 245:Core/Src/stm32f2xx_hal_msp.c **** * @retval None
 246:Core/Src/stm32f2xx_hal_msp.c **** */
 247:Core/Src/stm32f2xx_hal_msp.c **** void HAL_SPI_MspInit(SPI_HandleTypeDef* hspi)
 248:Core/Src/stm32f2xx_hal_msp.c **** {
 511              		.loc 1 248 1 is_stmt 1 view -0
 512              		.cfi_startproc
 513              		@ args = 0, pretend = 0, frame = 32
 514              		@ frame_needed = 0, uses_anonymous_args = 0
 515              		.loc 1 248 1 is_stmt 0 view .LVU126
 516 0000 00B5     		push	{lr}
 517              	.LCFI13:
 518              		.cfi_def_cfa_offset 4
 519              		.cfi_offset 14, -4
 520 0002 89B0     		sub	sp, sp, #36
 521              	.LCFI14:
 522              		.cfi_def_cfa_offset 40
 249:Core/Src/stm32f2xx_hal_msp.c ****   GPIO_InitTypeDef GPIO_InitStruct = {0};
 523              		.loc 1 249 3 is_stmt 1 view .LVU127
 524              		.loc 1 249 20 is_stmt 0 view .LVU128
 525 0004 0023     		movs	r3, #0
 526 0006 0393     		str	r3, [sp, #12]
 527 0008 0493     		str	r3, [sp, #16]
 528 000a 0593     		str	r3, [sp, #20]
 529 000c 0693     		str	r3, [sp, #24]
 530 000e 0793     		str	r3, [sp, #28]
 250:Core/Src/stm32f2xx_hal_msp.c ****   if(hspi->Instance==SPI3)
 531              		.loc 1 250 3 is_stmt 1 view .LVU129
 532              		.loc 1 250 10 is_stmt 0 view .LVU130
 533 0010 0268     		ldr	r2, [r0]
 534              		.loc 1 250 5 view .LVU131
 535 0012 154B     		ldr	r3, .L41
 536 0014 9A42     		cmp	r2, r3
 537 0016 02D0     		beq	.L40
 538              	.LVL23:
 539              	.L37:
 251:Core/Src/stm32f2xx_hal_msp.c ****   {
 252:Core/Src/stm32f2xx_hal_msp.c ****   /* USER CODE BEGIN SPI3_MspInit 0 */
 253:Core/Src/stm32f2xx_hal_msp.c **** 
 254:Core/Src/stm32f2xx_hal_msp.c ****   /* USER CODE END SPI3_MspInit 0 */
 255:Core/Src/stm32f2xx_hal_msp.c ****     /* Peripheral clock enable */
ARM GAS  C:\Users\sangt\AppData\Local\Temp\ccJ72Wmt.s 			page 16


 256:Core/Src/stm32f2xx_hal_msp.c ****     __HAL_RCC_SPI3_CLK_ENABLE();
 257:Core/Src/stm32f2xx_hal_msp.c **** 
 258:Core/Src/stm32f2xx_hal_msp.c ****     __HAL_RCC_GPIOC_CLK_ENABLE();
 259:Core/Src/stm32f2xx_hal_msp.c ****     /**SPI3 GPIO Configuration
 260:Core/Src/stm32f2xx_hal_msp.c ****     PC10     ------> SPI3_SCK
 261:Core/Src/stm32f2xx_hal_msp.c ****     PC11     ------> SPI3_MISO
 262:Core/Src/stm32f2xx_hal_msp.c ****     PC12     ------> SPI3_MOSI
 263:Core/Src/stm32f2xx_hal_msp.c ****     */
 264:Core/Src/stm32f2xx_hal_msp.c ****     GPIO_InitStruct.Pin = RF_SCK_Pin|RF_MISO_Pin|RF_MOSI_Pin;
 265:Core/Src/stm32f2xx_hal_msp.c ****     GPIO_InitStruct.Mode = GPIO_MODE_AF_PP;
 266:Core/Src/stm32f2xx_hal_msp.c ****     GPIO_InitStruct.Pull = GPIO_NOPULL;
 267:Core/Src/stm32f2xx_hal_msp.c ****     GPIO_InitStruct.Speed = GPIO_SPEED_FREQ_VERY_HIGH;
 268:Core/Src/stm32f2xx_hal_msp.c ****     GPIO_InitStruct.Alternate = GPIO_AF6_SPI3;
 269:Core/Src/stm32f2xx_hal_msp.c ****     HAL_GPIO_Init(GPIOC, &GPIO_InitStruct);
 270:Core/Src/stm32f2xx_hal_msp.c **** 
 271:Core/Src/stm32f2xx_hal_msp.c ****   /* USER CODE BEGIN SPI3_MspInit 1 */
 272:Core/Src/stm32f2xx_hal_msp.c **** 
 273:Core/Src/stm32f2xx_hal_msp.c ****   /* USER CODE END SPI3_MspInit 1 */
 274:Core/Src/stm32f2xx_hal_msp.c ****   }
 275:Core/Src/stm32f2xx_hal_msp.c **** 
 276:Core/Src/stm32f2xx_hal_msp.c **** }
 540              		.loc 1 276 1 view .LVU132
 541 0018 09B0     		add	sp, sp, #36
 542              	.LCFI15:
 543              		.cfi_remember_state
 544              		.cfi_def_cfa_offset 4
 545              		@ sp needed
 546 001a 5DF804FB 		ldr	pc, [sp], #4
 547              	.LVL24:
 548              	.L40:
 549              	.LCFI16:
 550              		.cfi_restore_state
 256:Core/Src/stm32f2xx_hal_msp.c **** 
 551              		.loc 1 256 5 is_stmt 1 view .LVU133
 552              	.LBB8:
 256:Core/Src/stm32f2xx_hal_msp.c **** 
 553              		.loc 1 256 5 view .LVU134
 554 001e 0021     		movs	r1, #0
 555 0020 0191     		str	r1, [sp, #4]
 256:Core/Src/stm32f2xx_hal_msp.c **** 
 556              		.loc 1 256 5 view .LVU135
 557 0022 03F5FE33 		add	r3, r3, #130048
 558 0026 1A6C     		ldr	r2, [r3, #64]
 559 0028 42F40042 		orr	r2, r2, #32768
 560 002c 1A64     		str	r2, [r3, #64]
 256:Core/Src/stm32f2xx_hal_msp.c **** 
 561              		.loc 1 256 5 view .LVU136
 562 002e 1A6C     		ldr	r2, [r3, #64]
 563 0030 02F40042 		and	r2, r2, #32768
 564 0034 0192     		str	r2, [sp, #4]
 256:Core/Src/stm32f2xx_hal_msp.c **** 
 565              		.loc 1 256 5 view .LVU137
 566 0036 019A     		ldr	r2, [sp, #4]
 567              	.LBE8:
 256:Core/Src/stm32f2xx_hal_msp.c **** 
 568              		.loc 1 256 5 view .LVU138
 258:Core/Src/stm32f2xx_hal_msp.c ****     /**SPI3 GPIO Configuration
ARM GAS  C:\Users\sangt\AppData\Local\Temp\ccJ72Wmt.s 			page 17


 569              		.loc 1 258 5 view .LVU139
 570              	.LBB9:
 258:Core/Src/stm32f2xx_hal_msp.c ****     /**SPI3 GPIO Configuration
 571              		.loc 1 258 5 view .LVU140
 572 0038 0291     		str	r1, [sp, #8]
 258:Core/Src/stm32f2xx_hal_msp.c ****     /**SPI3 GPIO Configuration
 573              		.loc 1 258 5 view .LVU141
 574 003a 1A6B     		ldr	r2, [r3, #48]
 575 003c 42F00402 		orr	r2, r2, #4
 576 0040 1A63     		str	r2, [r3, #48]
 258:Core/Src/stm32f2xx_hal_msp.c ****     /**SPI3 GPIO Configuration
 577              		.loc 1 258 5 view .LVU142
 578 0042 1B6B     		ldr	r3, [r3, #48]
 579 0044 03F00403 		and	r3, r3, #4
 580 0048 0293     		str	r3, [sp, #8]
 258:Core/Src/stm32f2xx_hal_msp.c ****     /**SPI3 GPIO Configuration
 581              		.loc 1 258 5 view .LVU143
 582 004a 029B     		ldr	r3, [sp, #8]
 583              	.LBE9:
 258:Core/Src/stm32f2xx_hal_msp.c ****     /**SPI3 GPIO Configuration
 584              		.loc 1 258 5 view .LVU144
 264:Core/Src/stm32f2xx_hal_msp.c ****     GPIO_InitStruct.Mode = GPIO_MODE_AF_PP;
 585              		.loc 1 264 5 view .LVU145
 264:Core/Src/stm32f2xx_hal_msp.c ****     GPIO_InitStruct.Mode = GPIO_MODE_AF_PP;
 586              		.loc 1 264 25 is_stmt 0 view .LVU146
 587 004c 4FF4E053 		mov	r3, #7168
 588 0050 0393     		str	r3, [sp, #12]
 265:Core/Src/stm32f2xx_hal_msp.c ****     GPIO_InitStruct.Pull = GPIO_NOPULL;
 589              		.loc 1 265 5 is_stmt 1 view .LVU147
 265:Core/Src/stm32f2xx_hal_msp.c ****     GPIO_InitStruct.Pull = GPIO_NOPULL;
 590              		.loc 1 265 26 is_stmt 0 view .LVU148
 591 0052 0223     		movs	r3, #2
 592 0054 0493     		str	r3, [sp, #16]
 266:Core/Src/stm32f2xx_hal_msp.c ****     GPIO_InitStruct.Speed = GPIO_SPEED_FREQ_VERY_HIGH;
 593              		.loc 1 266 5 is_stmt 1 view .LVU149
 267:Core/Src/stm32f2xx_hal_msp.c ****     GPIO_InitStruct.Alternate = GPIO_AF6_SPI3;
 594              		.loc 1 267 5 view .LVU150
 267:Core/Src/stm32f2xx_hal_msp.c ****     GPIO_InitStruct.Alternate = GPIO_AF6_SPI3;
 595              		.loc 1 267 27 is_stmt 0 view .LVU151
 596 0056 0323     		movs	r3, #3
 597 0058 0693     		str	r3, [sp, #24]
 268:Core/Src/stm32f2xx_hal_msp.c ****     HAL_GPIO_Init(GPIOC, &GPIO_InitStruct);
 598              		.loc 1 268 5 is_stmt 1 view .LVU152
 268:Core/Src/stm32f2xx_hal_msp.c ****     HAL_GPIO_Init(GPIOC, &GPIO_InitStruct);
 599              		.loc 1 268 31 is_stmt 0 view .LVU153
 600 005a 0623     		movs	r3, #6
 601 005c 0793     		str	r3, [sp, #28]
 269:Core/Src/stm32f2xx_hal_msp.c **** 
 602              		.loc 1 269 5 is_stmt 1 view .LVU154
 603 005e 03A9     		add	r1, sp, #12
 604 0060 0248     		ldr	r0, .L41+4
 605              	.LVL25:
 269:Core/Src/stm32f2xx_hal_msp.c **** 
 606              		.loc 1 269 5 is_stmt 0 view .LVU155
 607 0062 FFF7FEFF 		bl	HAL_GPIO_Init
 608              	.LVL26:
 609              		.loc 1 276 1 view .LVU156
ARM GAS  C:\Users\sangt\AppData\Local\Temp\ccJ72Wmt.s 			page 18


 610 0066 D7E7     		b	.L37
 611              	.L42:
 612              		.align	2
 613              	.L41:
 614 0068 003C0040 		.word	1073757184
 615 006c 00080240 		.word	1073874944
 616              		.cfi_endproc
 617              	.LFE77:
 619              		.section	.text.HAL_SPI_MspDeInit,"ax",%progbits
 620              		.align	1
 621              		.global	HAL_SPI_MspDeInit
 622              		.syntax unified
 623              		.thumb
 624              		.thumb_func
 626              	HAL_SPI_MspDeInit:
 627              	.LVL27:
 628              	.LFB78:
 277:Core/Src/stm32f2xx_hal_msp.c **** 
 278:Core/Src/stm32f2xx_hal_msp.c **** /**
 279:Core/Src/stm32f2xx_hal_msp.c **** * @brief SPI MSP De-Initialization
 280:Core/Src/stm32f2xx_hal_msp.c **** * This function freeze the hardware resources used in this example
 281:Core/Src/stm32f2xx_hal_msp.c **** * @param hspi: SPI handle pointer
 282:Core/Src/stm32f2xx_hal_msp.c **** * @retval None
 283:Core/Src/stm32f2xx_hal_msp.c **** */
 284:Core/Src/stm32f2xx_hal_msp.c **** void HAL_SPI_MspDeInit(SPI_HandleTypeDef* hspi)
 285:Core/Src/stm32f2xx_hal_msp.c **** {
 629              		.loc 1 285 1 is_stmt 1 view -0
 630              		.cfi_startproc
 631              		@ args = 0, pretend = 0, frame = 0
 632              		@ frame_needed = 0, uses_anonymous_args = 0
 633              		.loc 1 285 1 is_stmt 0 view .LVU158
 634 0000 08B5     		push	{r3, lr}
 635              	.LCFI17:
 636              		.cfi_def_cfa_offset 8
 637              		.cfi_offset 3, -8
 638              		.cfi_offset 14, -4
 286:Core/Src/stm32f2xx_hal_msp.c ****   if(hspi->Instance==SPI3)
 639              		.loc 1 286 3 is_stmt 1 view .LVU159
 640              		.loc 1 286 10 is_stmt 0 view .LVU160
 641 0002 0268     		ldr	r2, [r0]
 642              		.loc 1 286 5 view .LVU161
 643 0004 074B     		ldr	r3, .L47
 644 0006 9A42     		cmp	r2, r3
 645 0008 00D0     		beq	.L46
 646              	.LVL28:
 647              	.L43:
 287:Core/Src/stm32f2xx_hal_msp.c ****   {
 288:Core/Src/stm32f2xx_hal_msp.c ****   /* USER CODE BEGIN SPI3_MspDeInit 0 */
 289:Core/Src/stm32f2xx_hal_msp.c **** 
 290:Core/Src/stm32f2xx_hal_msp.c ****   /* USER CODE END SPI3_MspDeInit 0 */
 291:Core/Src/stm32f2xx_hal_msp.c ****     /* Peripheral clock disable */
 292:Core/Src/stm32f2xx_hal_msp.c ****     __HAL_RCC_SPI3_CLK_DISABLE();
 293:Core/Src/stm32f2xx_hal_msp.c **** 
 294:Core/Src/stm32f2xx_hal_msp.c ****     /**SPI3 GPIO Configuration
 295:Core/Src/stm32f2xx_hal_msp.c ****     PC10     ------> SPI3_SCK
 296:Core/Src/stm32f2xx_hal_msp.c ****     PC11     ------> SPI3_MISO
 297:Core/Src/stm32f2xx_hal_msp.c ****     PC12     ------> SPI3_MOSI
ARM GAS  C:\Users\sangt\AppData\Local\Temp\ccJ72Wmt.s 			page 19


 298:Core/Src/stm32f2xx_hal_msp.c ****     */
 299:Core/Src/stm32f2xx_hal_msp.c ****     HAL_GPIO_DeInit(GPIOC, RF_SCK_Pin|RF_MISO_Pin|RF_MOSI_Pin);
 300:Core/Src/stm32f2xx_hal_msp.c **** 
 301:Core/Src/stm32f2xx_hal_msp.c ****   /* USER CODE BEGIN SPI3_MspDeInit 1 */
 302:Core/Src/stm32f2xx_hal_msp.c **** 
 303:Core/Src/stm32f2xx_hal_msp.c ****   /* USER CODE END SPI3_MspDeInit 1 */
 304:Core/Src/stm32f2xx_hal_msp.c ****   }
 305:Core/Src/stm32f2xx_hal_msp.c **** 
 306:Core/Src/stm32f2xx_hal_msp.c **** }
 648              		.loc 1 306 1 view .LVU162
 649 000a 08BD     		pop	{r3, pc}
 650              	.LVL29:
 651              	.L46:
 292:Core/Src/stm32f2xx_hal_msp.c **** 
 652              		.loc 1 292 5 is_stmt 1 view .LVU163
 653 000c 064A     		ldr	r2, .L47+4
 654 000e 136C     		ldr	r3, [r2, #64]
 655 0010 23F40043 		bic	r3, r3, #32768
 656 0014 1364     		str	r3, [r2, #64]
 299:Core/Src/stm32f2xx_hal_msp.c **** 
 657              		.loc 1 299 5 view .LVU164
 658 0016 4FF4E051 		mov	r1, #7168
 659 001a 0448     		ldr	r0, .L47+8
 660              	.LVL30:
 299:Core/Src/stm32f2xx_hal_msp.c **** 
 661              		.loc 1 299 5 is_stmt 0 view .LVU165
 662 001c FFF7FEFF 		bl	HAL_GPIO_DeInit
 663              	.LVL31:
 664              		.loc 1 306 1 view .LVU166
 665 0020 F3E7     		b	.L43
 666              	.L48:
 667 0022 00BF     		.align	2
 668              	.L47:
 669 0024 003C0040 		.word	1073757184
 670 0028 00380240 		.word	1073887232
 671 002c 00080240 		.word	1073874944
 672              		.cfi_endproc
 673              	.LFE78:
 675              		.section	.text.HAL_UART_MspInit,"ax",%progbits
 676              		.align	1
 677              		.global	HAL_UART_MspInit
 678              		.syntax unified
 679              		.thumb
 680              		.thumb_func
 682              	HAL_UART_MspInit:
 683              	.LVL32:
 684              	.LFB79:
 307:Core/Src/stm32f2xx_hal_msp.c **** 
 308:Core/Src/stm32f2xx_hal_msp.c **** /**
 309:Core/Src/stm32f2xx_hal_msp.c **** * @brief UART MSP Initialization
 310:Core/Src/stm32f2xx_hal_msp.c **** * This function configures the hardware resources used in this example
 311:Core/Src/stm32f2xx_hal_msp.c **** * @param huart: UART handle pointer
 312:Core/Src/stm32f2xx_hal_msp.c **** * @retval None
 313:Core/Src/stm32f2xx_hal_msp.c **** */
 314:Core/Src/stm32f2xx_hal_msp.c **** void HAL_UART_MspInit(UART_HandleTypeDef* huart)
 315:Core/Src/stm32f2xx_hal_msp.c **** {
 685              		.loc 1 315 1 is_stmt 1 view -0
ARM GAS  C:\Users\sangt\AppData\Local\Temp\ccJ72Wmt.s 			page 20


 686              		.cfi_startproc
 687              		@ args = 0, pretend = 0, frame = 32
 688              		@ frame_needed = 0, uses_anonymous_args = 0
 689              		.loc 1 315 1 is_stmt 0 view .LVU168
 690 0000 30B5     		push	{r4, r5, lr}
 691              	.LCFI18:
 692              		.cfi_def_cfa_offset 12
 693              		.cfi_offset 4, -12
 694              		.cfi_offset 5, -8
 695              		.cfi_offset 14, -4
 696 0002 89B0     		sub	sp, sp, #36
 697              	.LCFI19:
 698              		.cfi_def_cfa_offset 48
 316:Core/Src/stm32f2xx_hal_msp.c ****   GPIO_InitTypeDef GPIO_InitStruct = {0};
 699              		.loc 1 316 3 is_stmt 1 view .LVU169
 700              		.loc 1 316 20 is_stmt 0 view .LVU170
 701 0004 0023     		movs	r3, #0
 702 0006 0393     		str	r3, [sp, #12]
 703 0008 0493     		str	r3, [sp, #16]
 704 000a 0593     		str	r3, [sp, #20]
 705 000c 0693     		str	r3, [sp, #24]
 706 000e 0793     		str	r3, [sp, #28]
 317:Core/Src/stm32f2xx_hal_msp.c ****   if(huart->Instance==USART3)
 707              		.loc 1 317 3 is_stmt 1 view .LVU171
 708              		.loc 1 317 11 is_stmt 0 view .LVU172
 709 0010 0268     		ldr	r2, [r0]
 710              		.loc 1 317 5 view .LVU173
 711 0012 334B     		ldr	r3, .L57
 712 0014 9A42     		cmp	r2, r3
 713 0016 01D0     		beq	.L54
 714              	.LVL33:
 715              	.L49:
 318:Core/Src/stm32f2xx_hal_msp.c ****   {
 319:Core/Src/stm32f2xx_hal_msp.c ****   /* USER CODE BEGIN USART3_MspInit 0 */
 320:Core/Src/stm32f2xx_hal_msp.c **** 
 321:Core/Src/stm32f2xx_hal_msp.c ****   /* USER CODE END USART3_MspInit 0 */
 322:Core/Src/stm32f2xx_hal_msp.c ****     /* Peripheral clock enable */
 323:Core/Src/stm32f2xx_hal_msp.c ****     __HAL_RCC_USART3_CLK_ENABLE();
 324:Core/Src/stm32f2xx_hal_msp.c **** 
 325:Core/Src/stm32f2xx_hal_msp.c ****     __HAL_RCC_GPIOB_CLK_ENABLE();
 326:Core/Src/stm32f2xx_hal_msp.c ****     /**USART3 GPIO Configuration
 327:Core/Src/stm32f2xx_hal_msp.c ****     PB10     ------> USART3_TX
 328:Core/Src/stm32f2xx_hal_msp.c ****     PB11     ------> USART3_RX
 329:Core/Src/stm32f2xx_hal_msp.c ****     */
 330:Core/Src/stm32f2xx_hal_msp.c ****     GPIO_InitStruct.Pin = GPIO_PIN_10|GPIO_PIN_11;
 331:Core/Src/stm32f2xx_hal_msp.c ****     GPIO_InitStruct.Mode = GPIO_MODE_AF_PP;
 332:Core/Src/stm32f2xx_hal_msp.c ****     GPIO_InitStruct.Pull = GPIO_NOPULL;
 333:Core/Src/stm32f2xx_hal_msp.c ****     GPIO_InitStruct.Speed = GPIO_SPEED_FREQ_VERY_HIGH;
 334:Core/Src/stm32f2xx_hal_msp.c ****     GPIO_InitStruct.Alternate = GPIO_AF7_USART3;
 335:Core/Src/stm32f2xx_hal_msp.c ****     HAL_GPIO_Init(GPIOB, &GPIO_InitStruct);
 336:Core/Src/stm32f2xx_hal_msp.c **** 
 337:Core/Src/stm32f2xx_hal_msp.c ****     /* USART3 DMA Init */
 338:Core/Src/stm32f2xx_hal_msp.c ****     /* USART3_RX Init */
 339:Core/Src/stm32f2xx_hal_msp.c ****     hdma_usart3_rx.Instance = DMA1_Stream1;
 340:Core/Src/stm32f2xx_hal_msp.c ****     hdma_usart3_rx.Init.Channel = DMA_CHANNEL_4;
 341:Core/Src/stm32f2xx_hal_msp.c ****     hdma_usart3_rx.Init.Direction = DMA_PERIPH_TO_MEMORY;
 342:Core/Src/stm32f2xx_hal_msp.c ****     hdma_usart3_rx.Init.PeriphInc = DMA_PINC_DISABLE;
ARM GAS  C:\Users\sangt\AppData\Local\Temp\ccJ72Wmt.s 			page 21


 343:Core/Src/stm32f2xx_hal_msp.c ****     hdma_usart3_rx.Init.MemInc = DMA_MINC_ENABLE;
 344:Core/Src/stm32f2xx_hal_msp.c ****     hdma_usart3_rx.Init.PeriphDataAlignment = DMA_PDATAALIGN_BYTE;
 345:Core/Src/stm32f2xx_hal_msp.c ****     hdma_usart3_rx.Init.MemDataAlignment = DMA_MDATAALIGN_BYTE;
 346:Core/Src/stm32f2xx_hal_msp.c ****     hdma_usart3_rx.Init.Mode = DMA_NORMAL;
 347:Core/Src/stm32f2xx_hal_msp.c ****     hdma_usart3_rx.Init.Priority = DMA_PRIORITY_LOW;
 348:Core/Src/stm32f2xx_hal_msp.c ****     hdma_usart3_rx.Init.FIFOMode = DMA_FIFOMODE_DISABLE;
 349:Core/Src/stm32f2xx_hal_msp.c ****     if (HAL_DMA_Init(&hdma_usart3_rx) != HAL_OK)
 350:Core/Src/stm32f2xx_hal_msp.c ****     {
 351:Core/Src/stm32f2xx_hal_msp.c ****       Error_Handler();
 352:Core/Src/stm32f2xx_hal_msp.c ****     }
 353:Core/Src/stm32f2xx_hal_msp.c **** 
 354:Core/Src/stm32f2xx_hal_msp.c ****     __HAL_LINKDMA(huart,hdmarx,hdma_usart3_rx);
 355:Core/Src/stm32f2xx_hal_msp.c **** 
 356:Core/Src/stm32f2xx_hal_msp.c ****     /* USART3_TX Init */
 357:Core/Src/stm32f2xx_hal_msp.c ****     hdma_usart3_tx.Instance = DMA1_Stream3;
 358:Core/Src/stm32f2xx_hal_msp.c ****     hdma_usart3_tx.Init.Channel = DMA_CHANNEL_4;
 359:Core/Src/stm32f2xx_hal_msp.c ****     hdma_usart3_tx.Init.Direction = DMA_MEMORY_TO_PERIPH;
 360:Core/Src/stm32f2xx_hal_msp.c ****     hdma_usart3_tx.Init.PeriphInc = DMA_PINC_DISABLE;
 361:Core/Src/stm32f2xx_hal_msp.c ****     hdma_usart3_tx.Init.MemInc = DMA_MINC_ENABLE;
 362:Core/Src/stm32f2xx_hal_msp.c ****     hdma_usart3_tx.Init.PeriphDataAlignment = DMA_PDATAALIGN_BYTE;
 363:Core/Src/stm32f2xx_hal_msp.c ****     hdma_usart3_tx.Init.MemDataAlignment = DMA_MDATAALIGN_BYTE;
 364:Core/Src/stm32f2xx_hal_msp.c ****     hdma_usart3_tx.Init.Mode = DMA_NORMAL;
 365:Core/Src/stm32f2xx_hal_msp.c ****     hdma_usart3_tx.Init.Priority = DMA_PRIORITY_LOW;
 366:Core/Src/stm32f2xx_hal_msp.c ****     hdma_usart3_tx.Init.FIFOMode = DMA_FIFOMODE_DISABLE;
 367:Core/Src/stm32f2xx_hal_msp.c ****     if (HAL_DMA_Init(&hdma_usart3_tx) != HAL_OK)
 368:Core/Src/stm32f2xx_hal_msp.c ****     {
 369:Core/Src/stm32f2xx_hal_msp.c ****       Error_Handler();
 370:Core/Src/stm32f2xx_hal_msp.c ****     }
 371:Core/Src/stm32f2xx_hal_msp.c **** 
 372:Core/Src/stm32f2xx_hal_msp.c ****     __HAL_LINKDMA(huart,hdmatx,hdma_usart3_tx);
 373:Core/Src/stm32f2xx_hal_msp.c **** 
 374:Core/Src/stm32f2xx_hal_msp.c ****     /* USART3 interrupt Init */
 375:Core/Src/stm32f2xx_hal_msp.c ****     HAL_NVIC_SetPriority(USART3_IRQn, 5, 0);
 376:Core/Src/stm32f2xx_hal_msp.c ****     HAL_NVIC_EnableIRQ(USART3_IRQn);
 377:Core/Src/stm32f2xx_hal_msp.c ****   /* USER CODE BEGIN USART3_MspInit 1 */
 378:Core/Src/stm32f2xx_hal_msp.c **** 
 379:Core/Src/stm32f2xx_hal_msp.c ****   /* USER CODE END USART3_MspInit 1 */
 380:Core/Src/stm32f2xx_hal_msp.c ****   }
 381:Core/Src/stm32f2xx_hal_msp.c **** 
 382:Core/Src/stm32f2xx_hal_msp.c **** }
 716              		.loc 1 382 1 view .LVU174
 717 0018 09B0     		add	sp, sp, #36
 718              	.LCFI20:
 719              		.cfi_remember_state
 720              		.cfi_def_cfa_offset 12
 721              		@ sp needed
 722 001a 30BD     		pop	{r4, r5, pc}
 723              	.LVL34:
 724              	.L54:
 725              	.LCFI21:
 726              		.cfi_restore_state
 727              		.loc 1 382 1 view .LVU175
 728 001c 0446     		mov	r4, r0
 323:Core/Src/stm32f2xx_hal_msp.c **** 
 729              		.loc 1 323 5 is_stmt 1 view .LVU176
 730              	.LBB10:
 323:Core/Src/stm32f2xx_hal_msp.c **** 
ARM GAS  C:\Users\sangt\AppData\Local\Temp\ccJ72Wmt.s 			page 22


 731              		.loc 1 323 5 view .LVU177
 732 001e 0025     		movs	r5, #0
 733 0020 0195     		str	r5, [sp, #4]
 323:Core/Src/stm32f2xx_hal_msp.c **** 
 734              		.loc 1 323 5 view .LVU178
 735 0022 03F5F833 		add	r3, r3, #126976
 736 0026 1A6C     		ldr	r2, [r3, #64]
 737 0028 42F48022 		orr	r2, r2, #262144
 738 002c 1A64     		str	r2, [r3, #64]
 323:Core/Src/stm32f2xx_hal_msp.c **** 
 739              		.loc 1 323 5 view .LVU179
 740 002e 1A6C     		ldr	r2, [r3, #64]
 741 0030 02F48022 		and	r2, r2, #262144
 742 0034 0192     		str	r2, [sp, #4]
 323:Core/Src/stm32f2xx_hal_msp.c **** 
 743              		.loc 1 323 5 view .LVU180
 744 0036 019A     		ldr	r2, [sp, #4]
 745              	.LBE10:
 323:Core/Src/stm32f2xx_hal_msp.c **** 
 746              		.loc 1 323 5 view .LVU181
 325:Core/Src/stm32f2xx_hal_msp.c ****     /**USART3 GPIO Configuration
 747              		.loc 1 325 5 view .LVU182
 748              	.LBB11:
 325:Core/Src/stm32f2xx_hal_msp.c ****     /**USART3 GPIO Configuration
 749              		.loc 1 325 5 view .LVU183
 750 0038 0295     		str	r5, [sp, #8]
 325:Core/Src/stm32f2xx_hal_msp.c ****     /**USART3 GPIO Configuration
 751              		.loc 1 325 5 view .LVU184
 752 003a 1A6B     		ldr	r2, [r3, #48]
 753 003c 42F00202 		orr	r2, r2, #2
 754 0040 1A63     		str	r2, [r3, #48]
 325:Core/Src/stm32f2xx_hal_msp.c ****     /**USART3 GPIO Configuration
 755              		.loc 1 325 5 view .LVU185
 756 0042 1B6B     		ldr	r3, [r3, #48]
 757 0044 03F00203 		and	r3, r3, #2
 758 0048 0293     		str	r3, [sp, #8]
 325:Core/Src/stm32f2xx_hal_msp.c ****     /**USART3 GPIO Configuration
 759              		.loc 1 325 5 view .LVU186
 760 004a 029B     		ldr	r3, [sp, #8]
 761              	.LBE11:
 325:Core/Src/stm32f2xx_hal_msp.c ****     /**USART3 GPIO Configuration
 762              		.loc 1 325 5 view .LVU187
 330:Core/Src/stm32f2xx_hal_msp.c ****     GPIO_InitStruct.Mode = GPIO_MODE_AF_PP;
 763              		.loc 1 330 5 view .LVU188
 330:Core/Src/stm32f2xx_hal_msp.c ****     GPIO_InitStruct.Mode = GPIO_MODE_AF_PP;
 764              		.loc 1 330 25 is_stmt 0 view .LVU189
 765 004c 4FF44063 		mov	r3, #3072
 766 0050 0393     		str	r3, [sp, #12]
 331:Core/Src/stm32f2xx_hal_msp.c ****     GPIO_InitStruct.Pull = GPIO_NOPULL;
 767              		.loc 1 331 5 is_stmt 1 view .LVU190
 331:Core/Src/stm32f2xx_hal_msp.c ****     GPIO_InitStruct.Pull = GPIO_NOPULL;
 768              		.loc 1 331 26 is_stmt 0 view .LVU191
 769 0052 0223     		movs	r3, #2
 770 0054 0493     		str	r3, [sp, #16]
 332:Core/Src/stm32f2xx_hal_msp.c ****     GPIO_InitStruct.Speed = GPIO_SPEED_FREQ_VERY_HIGH;
 771              		.loc 1 332 5 is_stmt 1 view .LVU192
 333:Core/Src/stm32f2xx_hal_msp.c ****     GPIO_InitStruct.Alternate = GPIO_AF7_USART3;
ARM GAS  C:\Users\sangt\AppData\Local\Temp\ccJ72Wmt.s 			page 23


 772              		.loc 1 333 5 view .LVU193
 333:Core/Src/stm32f2xx_hal_msp.c ****     GPIO_InitStruct.Alternate = GPIO_AF7_USART3;
 773              		.loc 1 333 27 is_stmt 0 view .LVU194
 774 0056 0323     		movs	r3, #3
 775 0058 0693     		str	r3, [sp, #24]
 334:Core/Src/stm32f2xx_hal_msp.c ****     HAL_GPIO_Init(GPIOB, &GPIO_InitStruct);
 776              		.loc 1 334 5 is_stmt 1 view .LVU195
 334:Core/Src/stm32f2xx_hal_msp.c ****     HAL_GPIO_Init(GPIOB, &GPIO_InitStruct);
 777              		.loc 1 334 31 is_stmt 0 view .LVU196
 778 005a 0723     		movs	r3, #7
 779 005c 0793     		str	r3, [sp, #28]
 335:Core/Src/stm32f2xx_hal_msp.c **** 
 780              		.loc 1 335 5 is_stmt 1 view .LVU197
 781 005e 03A9     		add	r1, sp, #12
 782 0060 2048     		ldr	r0, .L57+4
 783              	.LVL35:
 335:Core/Src/stm32f2xx_hal_msp.c **** 
 784              		.loc 1 335 5 is_stmt 0 view .LVU198
 785 0062 FFF7FEFF 		bl	HAL_GPIO_Init
 786              	.LVL36:
 339:Core/Src/stm32f2xx_hal_msp.c ****     hdma_usart3_rx.Init.Channel = DMA_CHANNEL_4;
 787              		.loc 1 339 5 is_stmt 1 view .LVU199
 339:Core/Src/stm32f2xx_hal_msp.c ****     hdma_usart3_rx.Init.Channel = DMA_CHANNEL_4;
 788              		.loc 1 339 29 is_stmt 0 view .LVU200
 789 0066 2048     		ldr	r0, .L57+8
 790 0068 204B     		ldr	r3, .L57+12
 791 006a 0360     		str	r3, [r0]
 340:Core/Src/stm32f2xx_hal_msp.c ****     hdma_usart3_rx.Init.Direction = DMA_PERIPH_TO_MEMORY;
 792              		.loc 1 340 5 is_stmt 1 view .LVU201
 340:Core/Src/stm32f2xx_hal_msp.c ****     hdma_usart3_rx.Init.Direction = DMA_PERIPH_TO_MEMORY;
 793              		.loc 1 340 33 is_stmt 0 view .LVU202
 794 006c 4FF00063 		mov	r3, #134217728
 795 0070 4360     		str	r3, [r0, #4]
 341:Core/Src/stm32f2xx_hal_msp.c ****     hdma_usart3_rx.Init.PeriphInc = DMA_PINC_DISABLE;
 796              		.loc 1 341 5 is_stmt 1 view .LVU203
 341:Core/Src/stm32f2xx_hal_msp.c ****     hdma_usart3_rx.Init.PeriphInc = DMA_PINC_DISABLE;
 797              		.loc 1 341 35 is_stmt 0 view .LVU204
 798 0072 8560     		str	r5, [r0, #8]
 342:Core/Src/stm32f2xx_hal_msp.c ****     hdma_usart3_rx.Init.MemInc = DMA_MINC_ENABLE;
 799              		.loc 1 342 5 is_stmt 1 view .LVU205
 342:Core/Src/stm32f2xx_hal_msp.c ****     hdma_usart3_rx.Init.MemInc = DMA_MINC_ENABLE;
 800              		.loc 1 342 35 is_stmt 0 view .LVU206
 801 0074 C560     		str	r5, [r0, #12]
 343:Core/Src/stm32f2xx_hal_msp.c ****     hdma_usart3_rx.Init.PeriphDataAlignment = DMA_PDATAALIGN_BYTE;
 802              		.loc 1 343 5 is_stmt 1 view .LVU207
 343:Core/Src/stm32f2xx_hal_msp.c ****     hdma_usart3_rx.Init.PeriphDataAlignment = DMA_PDATAALIGN_BYTE;
 803              		.loc 1 343 32 is_stmt 0 view .LVU208
 804 0076 4FF48063 		mov	r3, #1024
 805 007a 0361     		str	r3, [r0, #16]
 344:Core/Src/stm32f2xx_hal_msp.c ****     hdma_usart3_rx.Init.MemDataAlignment = DMA_MDATAALIGN_BYTE;
 806              		.loc 1 344 5 is_stmt 1 view .LVU209
 344:Core/Src/stm32f2xx_hal_msp.c ****     hdma_usart3_rx.Init.MemDataAlignment = DMA_MDATAALIGN_BYTE;
 807              		.loc 1 344 45 is_stmt 0 view .LVU210
 808 007c 4561     		str	r5, [r0, #20]
 345:Core/Src/stm32f2xx_hal_msp.c ****     hdma_usart3_rx.Init.Mode = DMA_NORMAL;
 809              		.loc 1 345 5 is_stmt 1 view .LVU211
 345:Core/Src/stm32f2xx_hal_msp.c ****     hdma_usart3_rx.Init.Mode = DMA_NORMAL;
ARM GAS  C:\Users\sangt\AppData\Local\Temp\ccJ72Wmt.s 			page 24


 810              		.loc 1 345 42 is_stmt 0 view .LVU212
 811 007e 8561     		str	r5, [r0, #24]
 346:Core/Src/stm32f2xx_hal_msp.c ****     hdma_usart3_rx.Init.Priority = DMA_PRIORITY_LOW;
 812              		.loc 1 346 5 is_stmt 1 view .LVU213
 346:Core/Src/stm32f2xx_hal_msp.c ****     hdma_usart3_rx.Init.Priority = DMA_PRIORITY_LOW;
 813              		.loc 1 346 30 is_stmt 0 view .LVU214
 814 0080 C561     		str	r5, [r0, #28]
 347:Core/Src/stm32f2xx_hal_msp.c ****     hdma_usart3_rx.Init.FIFOMode = DMA_FIFOMODE_DISABLE;
 815              		.loc 1 347 5 is_stmt 1 view .LVU215
 347:Core/Src/stm32f2xx_hal_msp.c ****     hdma_usart3_rx.Init.FIFOMode = DMA_FIFOMODE_DISABLE;
 816              		.loc 1 347 34 is_stmt 0 view .LVU216
 817 0082 0562     		str	r5, [r0, #32]
 348:Core/Src/stm32f2xx_hal_msp.c ****     if (HAL_DMA_Init(&hdma_usart3_rx) != HAL_OK)
 818              		.loc 1 348 5 is_stmt 1 view .LVU217
 348:Core/Src/stm32f2xx_hal_msp.c ****     if (HAL_DMA_Init(&hdma_usart3_rx) != HAL_OK)
 819              		.loc 1 348 34 is_stmt 0 view .LVU218
 820 0084 4562     		str	r5, [r0, #36]
 349:Core/Src/stm32f2xx_hal_msp.c ****     {
 821              		.loc 1 349 5 is_stmt 1 view .LVU219
 349:Core/Src/stm32f2xx_hal_msp.c ****     {
 822              		.loc 1 349 9 is_stmt 0 view .LVU220
 823 0086 FFF7FEFF 		bl	HAL_DMA_Init
 824              	.LVL37:
 349:Core/Src/stm32f2xx_hal_msp.c ****     {
 825              		.loc 1 349 8 view .LVU221
 826 008a 18BB     		cbnz	r0, .L55
 827              	.L51:
 354:Core/Src/stm32f2xx_hal_msp.c **** 
 828              		.loc 1 354 5 is_stmt 1 view .LVU222
 354:Core/Src/stm32f2xx_hal_msp.c **** 
 829              		.loc 1 354 5 view .LVU223
 830 008c 164B     		ldr	r3, .L57+8
 831 008e A363     		str	r3, [r4, #56]
 354:Core/Src/stm32f2xx_hal_msp.c **** 
 832              		.loc 1 354 5 view .LVU224
 833 0090 9C63     		str	r4, [r3, #56]
 354:Core/Src/stm32f2xx_hal_msp.c **** 
 834              		.loc 1 354 5 view .LVU225
 357:Core/Src/stm32f2xx_hal_msp.c ****     hdma_usart3_tx.Init.Channel = DMA_CHANNEL_4;
 835              		.loc 1 357 5 view .LVU226
 357:Core/Src/stm32f2xx_hal_msp.c ****     hdma_usart3_tx.Init.Channel = DMA_CHANNEL_4;
 836              		.loc 1 357 29 is_stmt 0 view .LVU227
 837 0092 1748     		ldr	r0, .L57+16
 838 0094 174B     		ldr	r3, .L57+20
 839 0096 0360     		str	r3, [r0]
 358:Core/Src/stm32f2xx_hal_msp.c ****     hdma_usart3_tx.Init.Direction = DMA_MEMORY_TO_PERIPH;
 840              		.loc 1 358 5 is_stmt 1 view .LVU228
 358:Core/Src/stm32f2xx_hal_msp.c ****     hdma_usart3_tx.Init.Direction = DMA_MEMORY_TO_PERIPH;
 841              		.loc 1 358 33 is_stmt 0 view .LVU229
 842 0098 4FF00063 		mov	r3, #134217728
 843 009c 4360     		str	r3, [r0, #4]
 359:Core/Src/stm32f2xx_hal_msp.c ****     hdma_usart3_tx.Init.PeriphInc = DMA_PINC_DISABLE;
 844              		.loc 1 359 5 is_stmt 1 view .LVU230
 359:Core/Src/stm32f2xx_hal_msp.c ****     hdma_usart3_tx.Init.PeriphInc = DMA_PINC_DISABLE;
 845              		.loc 1 359 35 is_stmt 0 view .LVU231
 846 009e 4023     		movs	r3, #64
 847 00a0 8360     		str	r3, [r0, #8]
ARM GAS  C:\Users\sangt\AppData\Local\Temp\ccJ72Wmt.s 			page 25


 360:Core/Src/stm32f2xx_hal_msp.c ****     hdma_usart3_tx.Init.MemInc = DMA_MINC_ENABLE;
 848              		.loc 1 360 5 is_stmt 1 view .LVU232
 360:Core/Src/stm32f2xx_hal_msp.c ****     hdma_usart3_tx.Init.MemInc = DMA_MINC_ENABLE;
 849              		.loc 1 360 35 is_stmt 0 view .LVU233
 850 00a2 0023     		movs	r3, #0
 851 00a4 C360     		str	r3, [r0, #12]
 361:Core/Src/stm32f2xx_hal_msp.c ****     hdma_usart3_tx.Init.PeriphDataAlignment = DMA_PDATAALIGN_BYTE;
 852              		.loc 1 361 5 is_stmt 1 view .LVU234
 361:Core/Src/stm32f2xx_hal_msp.c ****     hdma_usart3_tx.Init.PeriphDataAlignment = DMA_PDATAALIGN_BYTE;
 853              		.loc 1 361 32 is_stmt 0 view .LVU235
 854 00a6 4FF48062 		mov	r2, #1024
 855 00aa 0261     		str	r2, [r0, #16]
 362:Core/Src/stm32f2xx_hal_msp.c ****     hdma_usart3_tx.Init.MemDataAlignment = DMA_MDATAALIGN_BYTE;
 856              		.loc 1 362 5 is_stmt 1 view .LVU236
 362:Core/Src/stm32f2xx_hal_msp.c ****     hdma_usart3_tx.Init.MemDataAlignment = DMA_MDATAALIGN_BYTE;
 857              		.loc 1 362 45 is_stmt 0 view .LVU237
 858 00ac 4361     		str	r3, [r0, #20]
 363:Core/Src/stm32f2xx_hal_msp.c ****     hdma_usart3_tx.Init.Mode = DMA_NORMAL;
 859              		.loc 1 363 5 is_stmt 1 view .LVU238
 363:Core/Src/stm32f2xx_hal_msp.c ****     hdma_usart3_tx.Init.Mode = DMA_NORMAL;
 860              		.loc 1 363 42 is_stmt 0 view .LVU239
 861 00ae 8361     		str	r3, [r0, #24]
 364:Core/Src/stm32f2xx_hal_msp.c ****     hdma_usart3_tx.Init.Priority = DMA_PRIORITY_LOW;
 862              		.loc 1 364 5 is_stmt 1 view .LVU240
 364:Core/Src/stm32f2xx_hal_msp.c ****     hdma_usart3_tx.Init.Priority = DMA_PRIORITY_LOW;
 863              		.loc 1 364 30 is_stmt 0 view .LVU241
 864 00b0 C361     		str	r3, [r0, #28]
 365:Core/Src/stm32f2xx_hal_msp.c ****     hdma_usart3_tx.Init.FIFOMode = DMA_FIFOMODE_DISABLE;
 865              		.loc 1 365 5 is_stmt 1 view .LVU242
 365:Core/Src/stm32f2xx_hal_msp.c ****     hdma_usart3_tx.Init.FIFOMode = DMA_FIFOMODE_DISABLE;
 866              		.loc 1 365 34 is_stmt 0 view .LVU243
 867 00b2 0362     		str	r3, [r0, #32]
 366:Core/Src/stm32f2xx_hal_msp.c ****     if (HAL_DMA_Init(&hdma_usart3_tx) != HAL_OK)
 868              		.loc 1 366 5 is_stmt 1 view .LVU244
 366:Core/Src/stm32f2xx_hal_msp.c ****     if (HAL_DMA_Init(&hdma_usart3_tx) != HAL_OK)
 869              		.loc 1 366 34 is_stmt 0 view .LVU245
 870 00b4 4362     		str	r3, [r0, #36]
 367:Core/Src/stm32f2xx_hal_msp.c ****     {
 871              		.loc 1 367 5 is_stmt 1 view .LVU246
 367:Core/Src/stm32f2xx_hal_msp.c ****     {
 872              		.loc 1 367 9 is_stmt 0 view .LVU247
 873 00b6 FFF7FEFF 		bl	HAL_DMA_Init
 874              	.LVL38:
 367:Core/Src/stm32f2xx_hal_msp.c ****     {
 875              		.loc 1 367 8 view .LVU248
 876 00ba 70B9     		cbnz	r0, .L56
 877              	.L52:
 372:Core/Src/stm32f2xx_hal_msp.c **** 
 878              		.loc 1 372 5 is_stmt 1 view .LVU249
 372:Core/Src/stm32f2xx_hal_msp.c **** 
 879              		.loc 1 372 5 view .LVU250
 880 00bc 0C4B     		ldr	r3, .L57+16
 881 00be 6363     		str	r3, [r4, #52]
 372:Core/Src/stm32f2xx_hal_msp.c **** 
 882              		.loc 1 372 5 view .LVU251
 883 00c0 9C63     		str	r4, [r3, #56]
 372:Core/Src/stm32f2xx_hal_msp.c **** 
ARM GAS  C:\Users\sangt\AppData\Local\Temp\ccJ72Wmt.s 			page 26


 884              		.loc 1 372 5 view .LVU252
 375:Core/Src/stm32f2xx_hal_msp.c ****     HAL_NVIC_EnableIRQ(USART3_IRQn);
 885              		.loc 1 375 5 view .LVU253
 886 00c2 0022     		movs	r2, #0
 887 00c4 0521     		movs	r1, #5
 888 00c6 2720     		movs	r0, #39
 889 00c8 FFF7FEFF 		bl	HAL_NVIC_SetPriority
 890              	.LVL39:
 376:Core/Src/stm32f2xx_hal_msp.c ****   /* USER CODE BEGIN USART3_MspInit 1 */
 891              		.loc 1 376 5 view .LVU254
 892 00cc 2720     		movs	r0, #39
 893 00ce FFF7FEFF 		bl	HAL_NVIC_EnableIRQ
 894              	.LVL40:
 895              		.loc 1 382 1 is_stmt 0 view .LVU255
 896 00d2 A1E7     		b	.L49
 897              	.L55:
 351:Core/Src/stm32f2xx_hal_msp.c ****     }
 898              		.loc 1 351 7 is_stmt 1 view .LVU256
 899 00d4 FFF7FEFF 		bl	Error_Handler
 900              	.LVL41:
 901 00d8 D8E7     		b	.L51
 902              	.L56:
 369:Core/Src/stm32f2xx_hal_msp.c ****     }
 903              		.loc 1 369 7 view .LVU257
 904 00da FFF7FEFF 		bl	Error_Handler
 905              	.LVL42:
 906 00de EDE7     		b	.L52
 907              	.L58:
 908              		.align	2
 909              	.L57:
 910 00e0 00480040 		.word	1073760256
 911 00e4 00040240 		.word	1073873920
 912 00e8 00000000 		.word	hdma_usart3_rx
 913 00ec 28600240 		.word	1073897512
 914 00f0 00000000 		.word	hdma_usart3_tx
 915 00f4 58600240 		.word	1073897560
 916              		.cfi_endproc
 917              	.LFE79:
 919              		.section	.text.HAL_UART_MspDeInit,"ax",%progbits
 920              		.align	1
 921              		.global	HAL_UART_MspDeInit
 922              		.syntax unified
 923              		.thumb
 924              		.thumb_func
 926              	HAL_UART_MspDeInit:
 927              	.LVL43:
 928              	.LFB80:
 383:Core/Src/stm32f2xx_hal_msp.c **** 
 384:Core/Src/stm32f2xx_hal_msp.c **** /**
 385:Core/Src/stm32f2xx_hal_msp.c **** * @brief UART MSP De-Initialization
 386:Core/Src/stm32f2xx_hal_msp.c **** * This function freeze the hardware resources used in this example
 387:Core/Src/stm32f2xx_hal_msp.c **** * @param huart: UART handle pointer
 388:Core/Src/stm32f2xx_hal_msp.c **** * @retval None
 389:Core/Src/stm32f2xx_hal_msp.c **** */
 390:Core/Src/stm32f2xx_hal_msp.c **** void HAL_UART_MspDeInit(UART_HandleTypeDef* huart)
 391:Core/Src/stm32f2xx_hal_msp.c **** {
 929              		.loc 1 391 1 view -0
ARM GAS  C:\Users\sangt\AppData\Local\Temp\ccJ72Wmt.s 			page 27


 930              		.cfi_startproc
 931              		@ args = 0, pretend = 0, frame = 0
 932              		@ frame_needed = 0, uses_anonymous_args = 0
 392:Core/Src/stm32f2xx_hal_msp.c ****   if(huart->Instance==USART3)
 933              		.loc 1 392 3 view .LVU259
 934              		.loc 1 392 11 is_stmt 0 view .LVU260
 935 0000 0268     		ldr	r2, [r0]
 936              		.loc 1 392 5 view .LVU261
 937 0002 0D4B     		ldr	r3, .L66
 938 0004 9A42     		cmp	r2, r3
 939 0006 00D0     		beq	.L65
 940 0008 7047     		bx	lr
 941              	.L65:
 391:Core/Src/stm32f2xx_hal_msp.c ****   if(huart->Instance==USART3)
 942              		.loc 1 391 1 view .LVU262
 943 000a 10B5     		push	{r4, lr}
 944              	.LCFI22:
 945              		.cfi_def_cfa_offset 8
 946              		.cfi_offset 4, -8
 947              		.cfi_offset 14, -4
 948 000c 0446     		mov	r4, r0
 393:Core/Src/stm32f2xx_hal_msp.c ****   {
 394:Core/Src/stm32f2xx_hal_msp.c ****   /* USER CODE BEGIN USART3_MspDeInit 0 */
 395:Core/Src/stm32f2xx_hal_msp.c **** 
 396:Core/Src/stm32f2xx_hal_msp.c ****   /* USER CODE END USART3_MspDeInit 0 */
 397:Core/Src/stm32f2xx_hal_msp.c ****     /* Peripheral clock disable */
 398:Core/Src/stm32f2xx_hal_msp.c ****     __HAL_RCC_USART3_CLK_DISABLE();
 949              		.loc 1 398 5 is_stmt 1 view .LVU263
 950 000e 0B4A     		ldr	r2, .L66+4
 951 0010 136C     		ldr	r3, [r2, #64]
 952 0012 23F48023 		bic	r3, r3, #262144
 953 0016 1364     		str	r3, [r2, #64]
 399:Core/Src/stm32f2xx_hal_msp.c **** 
 400:Core/Src/stm32f2xx_hal_msp.c ****     /**USART3 GPIO Configuration
 401:Core/Src/stm32f2xx_hal_msp.c ****     PB10     ------> USART3_TX
 402:Core/Src/stm32f2xx_hal_msp.c ****     PB11     ------> USART3_RX
 403:Core/Src/stm32f2xx_hal_msp.c ****     */
 404:Core/Src/stm32f2xx_hal_msp.c ****     HAL_GPIO_DeInit(GPIOB, GPIO_PIN_10|GPIO_PIN_11);
 954              		.loc 1 404 5 view .LVU264
 955 0018 4FF44061 		mov	r1, #3072
 956 001c 0848     		ldr	r0, .L66+8
 957              	.LVL44:
 958              		.loc 1 404 5 is_stmt 0 view .LVU265
 959 001e FFF7FEFF 		bl	HAL_GPIO_DeInit
 960              	.LVL45:
 405:Core/Src/stm32f2xx_hal_msp.c **** 
 406:Core/Src/stm32f2xx_hal_msp.c ****     /* USART3 DMA DeInit */
 407:Core/Src/stm32f2xx_hal_msp.c ****     HAL_DMA_DeInit(huart->hdmarx);
 961              		.loc 1 407 5 is_stmt 1 view .LVU266
 962 0022 A06B     		ldr	r0, [r4, #56]
 963 0024 FFF7FEFF 		bl	HAL_DMA_DeInit
 964              	.LVL46:
 408:Core/Src/stm32f2xx_hal_msp.c ****     HAL_DMA_DeInit(huart->hdmatx);
 965              		.loc 1 408 5 view .LVU267
 966 0028 606B     		ldr	r0, [r4, #52]
 967 002a FFF7FEFF 		bl	HAL_DMA_DeInit
 968              	.LVL47:
ARM GAS  C:\Users\sangt\AppData\Local\Temp\ccJ72Wmt.s 			page 28


 409:Core/Src/stm32f2xx_hal_msp.c **** 
 410:Core/Src/stm32f2xx_hal_msp.c ****     /* USART3 interrupt DeInit */
 411:Core/Src/stm32f2xx_hal_msp.c ****     HAL_NVIC_DisableIRQ(USART3_IRQn);
 969              		.loc 1 411 5 view .LVU268
 970 002e 2720     		movs	r0, #39
 971 0030 FFF7FEFF 		bl	HAL_NVIC_DisableIRQ
 972              	.LVL48:
 412:Core/Src/stm32f2xx_hal_msp.c ****   /* USER CODE BEGIN USART3_MspDeInit 1 */
 413:Core/Src/stm32f2xx_hal_msp.c **** 
 414:Core/Src/stm32f2xx_hal_msp.c ****   /* USER CODE END USART3_MspDeInit 1 */
 415:Core/Src/stm32f2xx_hal_msp.c ****   }
 416:Core/Src/stm32f2xx_hal_msp.c **** 
 417:Core/Src/stm32f2xx_hal_msp.c **** }
 973              		.loc 1 417 1 is_stmt 0 view .LVU269
 974 0034 10BD     		pop	{r4, pc}
 975              	.LVL49:
 976              	.L67:
 977              		.loc 1 417 1 view .LVU270
 978 0036 00BF     		.align	2
 979              	.L66:
 980 0038 00480040 		.word	1073760256
 981 003c 00380240 		.word	1073887232
 982 0040 00040240 		.word	1073873920
 983              		.cfi_endproc
 984              	.LFE80:
 986              		.text
 987              	.Letext0:
 988              		.file 2 "c:\\program files (x86)\\gnu arm embedded toolchain\\10 2021.10\\arm-none-eabi\\include\\
 989              		.file 3 "c:\\program files (x86)\\gnu arm embedded toolchain\\10 2021.10\\arm-none-eabi\\include\\
 990              		.file 4 "Drivers/CMSIS/Device/ST/STM32F2xx/Include/stm32f205xx.h"
 991              		.file 5 "Drivers/CMSIS/Device/ST/STM32F2xx/Include/stm32f2xx.h"
 992              		.file 6 "Drivers/STM32F2xx_HAL_Driver/Inc/stm32f2xx_hal_def.h"
 993              		.file 7 "Drivers/STM32F2xx_HAL_Driver/Inc/stm32f2xx_hal_gpio.h"
 994              		.file 8 "Drivers/STM32F2xx_HAL_Driver/Inc/stm32f2xx_hal_dma.h"
 995              		.file 9 "Drivers/STM32F2xx_HAL_Driver/Inc/stm32f2xx_hal_adc.h"
 996              		.file 10 "Drivers/STM32F2xx_HAL_Driver/Inc/stm32f2xx_hal_i2c.h"
 997              		.file 11 "Drivers/STM32F2xx_HAL_Driver/Inc/stm32f2xx_hal_spi.h"
 998              		.file 12 "Drivers/STM32F2xx_HAL_Driver/Inc/stm32f2xx_hal_uart.h"
 999              		.file 13 "Drivers/STM32F2xx_HAL_Driver/Inc/stm32f2xx_hal_cortex.h"
 1000              		.file 14 "Core/Inc/main.h"
ARM GAS  C:\Users\sangt\AppData\Local\Temp\ccJ72Wmt.s 			page 29

